
Simple_Socket_BUP.elf:     file format elf32-littlenios2
Simple_Socket_BUP.elf
architecture: nios2:r1, flags 0x00000112:
EXEC_P, HAS_SYMS, D_PAGED
start address 0x08200200

Program Header:
    LOAD off    0x00001000 vaddr 0x04a80000 paddr 0x04a80000 align 2**12
         filesz 0x00000000 memsz 0x00000000 flags r-x
    LOAD off    0x00001060 vaddr 0x08200060 paddr 0x08200060 align 2**12
         filesz 0x00053fdc memsz 0x0005ea8c flags rwx

Sections:
Idx Name          Size      VMA       LMA       File off  Algn
  0 .entry        00000000  04a80000  04a80000  00001000  2**5
                  CONTENTS, ALLOC, LOAD, READONLY, CODE
  1 .exceptions   000001a0  08200060  08200060  00001060  2**2
                  CONTENTS, ALLOC, LOAD, READONLY, CODE
  2 .text         0004bd30  08200200  08200200  00001200  2**2
                  CONTENTS, ALLOC, LOAD, READONLY, CODE
  3 .rodata       00006020  0824bf30  0824bf30  0004cf30  2**2
                  CONTENTS, ALLOC, LOAD, READONLY, DATA
  4 .rwdata       000020ec  08251f50  08251f50  00052f50  2**2
                  CONTENTS, ALLOC, LOAD, DATA, SMALL_DATA
  5 .bss          0000aab0  0825403c  0825403c  0005503c  2**2
                  ALLOC, SMALL_DATA
  6 .ext_flash    00000000  04a80020  04a80020  0005503c  2**0
                  CONTENTS
  7 .descriptor_memory 00000000  08000000  08000000  0005503c  2**0
                  CONTENTS
  8 .onchip_ram   00000000  0825eaec  0825eaec  0005503c  2**0
                  CONTENTS
  9 .comment      00000023  00000000  00000000  0005503c  2**0
                  CONTENTS, READONLY
 10 .debug_aranges 00001d18  00000000  00000000  00055060  2**3
                  CONTENTS, READONLY, DEBUGGING
 11 .debug_info   00067021  00000000  00000000  00056d78  2**0
                  CONTENTS, READONLY, DEBUGGING
 12 .debug_abbrev 00015607  00000000  00000000  000bdd99  2**0
                  CONTENTS, READONLY, DEBUGGING
 13 .debug_line   0001daa2  00000000  00000000  000d33a0  2**0
                  CONTENTS, READONLY, DEBUGGING
 14 .debug_frame  00008908  00000000  00000000  000f0e44  2**2
                  CONTENTS, READONLY, DEBUGGING
 15 .debug_str    0000bace  00000000  00000000  000f974c  2**0
                  CONTENTS, READONLY, DEBUGGING
 16 .debug_loc    0001ef9a  00000000  00000000  0010521a  2**0
                  CONTENTS, READONLY, DEBUGGING
 17 .debug_alt_sim_info 00000050  00000000  00000000  001241b4  2**2
                  CONTENTS, READONLY, DEBUGGING
 18 .debug_ranges 00001e98  00000000  00000000  00124208  2**3
                  CONTENTS, READONLY, DEBUGGING
 19 .thread_model 00000006  00000000  00000000  00130892  2**0
                  CONTENTS, READONLY
 20 .cpu          00000003  00000000  00000000  00130898  2**0
                  CONTENTS, READONLY
 21 .qsys         00000001  00000000  00000000  0013089b  2**0
                  CONTENTS, READONLY
 22 .simulation_enabled 00000001  00000000  00000000  0013089c  2**0
                  CONTENTS, READONLY
 23 .sysid_hash   00000004  00000000  00000000  0013089d  2**0
                  CONTENTS, READONLY
 24 .sysid_base   00000004  00000000  00000000  001308a1  2**0
                  CONTENTS, READONLY
 25 .sysid_time   00000004  00000000  00000000  001308a5  2**0
                  CONTENTS, READONLY
 26 .stderr_dev   0000000b  00000000  00000000  001308a9  2**0
                  CONTENTS, READONLY
 27 .stdin_dev    0000000b  00000000  00000000  001308b4  2**0
                  CONTENTS, READONLY
 28 .stdout_dev   0000000b  00000000  00000000  001308bf  2**0
                  CONTENTS, READONLY
 29 .sopc_system_name 0000001a  00000000  00000000  001308ca  2**0
                  CONTENTS, READONLY
 30 .quartus_project_dir 00000023  00000000  00000000  001308e4  2**0
                  CONTENTS, READONLY
 31 .jdi          00007005  00000000  00000000  00130907  2**0
                  CONTENTS, READONLY
 32 .sopcinfo     000bd54f  00000000  00000000  0013790c  2**0
                  CONTENTS, READONLY
SYMBOL TABLE:
04a80000 l    d  .entry	00000000 .entry
08200060 l    d  .exceptions	00000000 .exceptions
08200200 l    d  .text	00000000 .text
0824bf30 l    d  .rodata	00000000 .rodata
08251f50 l    d  .rwdata	00000000 .rwdata
0825403c l    d  .bss	00000000 .bss
04a80020 l    d  .ext_flash	00000000 .ext_flash
08000000 l    d  .descriptor_memory	00000000 .descriptor_memory
0825eaec l    d  .onchip_ram	00000000 .onchip_ram
00000000 l    d  .comment	00000000 .comment
00000000 l    d  .debug_aranges	00000000 .debug_aranges
00000000 l    d  .debug_info	00000000 .debug_info
00000000 l    d  .debug_abbrev	00000000 .debug_abbrev
00000000 l    d  .debug_line	00000000 .debug_line
00000000 l    d  .debug_frame	00000000 .debug_frame
00000000 l    d  .debug_str	00000000 .debug_str
00000000 l    d  .debug_loc	00000000 .debug_loc
00000000 l    d  .debug_alt_sim_info	00000000 .debug_alt_sim_info
00000000 l    d  .debug_ranges	00000000 .debug_ranges
00000000 l    df *ABS*	00000000 ../Simple_Socket_BUP_bsp//obj/HAL/src/crt0.o
08200244 l       .text	00000000 alt_after_alt_main
00000000 l    df *ABS*	00000000 alt_exception_entry.o
082000d4 l       .exceptions	00000000 alt_exception_unknown
00000000 l    df *ABS*	00000000 alt_irq_handler.c
00000000 l    df *ABS*	00000000 alt_error_handler.c
00000000 l    df *ABS*	00000000 iniche_init.c
00000000 l    df *ABS*	00000000 led.c
00000000 l    df *ABS*	00000000 network_utilities.c
00000000 l    df *ABS*	00000000 simple_socket_server.c
08254048 l     O .bss	00000004 SSSCommand.4950
08254258 l     O .bss	000005f0 conn.4980
00000000 l    df *ABS*	00000000 tse_my_system.c
00000000 l    df *ABS*	00000000 lib2-divmod.c
00000000 l    df *ABS*	00000000 ctype_.c
0824d2e3 l     O .rodata	00000180 _ctype_b
00000000 l    df *ABS*	00000000 fprintf.c
00000000 l    df *ABS*	00000000 fwrite.c
00000000 l    df *ABS*	00000000 getc.c
00000000 l    df *ABS*	00000000 impure.c
08252088 l     O .rwdata	00000424 impure_data
00000000 l    df *ABS*	00000000 memcpy.c
00000000 l    df *ABS*	00000000 memmove.c
00000000 l    df *ABS*	00000000 memset.c
00000000 l    df *ABS*	00000000 perror.c
00000000 l    df *ABS*	00000000 printf.c
00000000 l    df *ABS*	00000000 putc.c
00000000 l    df *ABS*	00000000 putchar.c
00000000 l    df *ABS*	00000000 puts.c
00000000 l    df *ABS*	00000000 rget.c
00000000 l    df *ABS*	00000000 sprintf.c
00000000 l    df *ABS*	00000000 strchr.c
00000000 l    df *ABS*	00000000 strerror.c
00000000 l    df *ABS*	00000000 strlen.c
00000000 l    df *ABS*	00000000 strstr.c
08204054 l     F .text	00000104 critical_factorization
08204158 l     F .text	000003b0 two_way_long_needle
00000000 l    df *ABS*	00000000 vfprintf.c
0824dbb2 l     O .rodata	00000010 zeroes.4389
0824dbc2 l     O .rodata	00000010 blanks.4388
00000000 l    df *ABS*	00000000 u_strerr.c
00000000 l    df *ABS*	00000000 vfprintf.c
0824dbd2 l     O .rodata	00000010 zeroes.4404
08208cac l     F .text	000000bc __sbprintf
0824dbe2 l     O .rodata	00000010 blanks.4403
00000000 l    df *ABS*	00000000 wbuf.c
00000000 l    df *ABS*	00000000 wsetup.c
00000000 l    df *ABS*	00000000 dtoa.c
08209014 l     F .text	00000200 quorem
00000000 l    df *ABS*	00000000 fflush.c
00000000 l    df *ABS*	00000000 findfp.c
0820ab44 l     F .text	00000008 __fp_unlock
0820ab58 l     F .text	0000019c __sinit.part.1
0820acf4 l     F .text	00000008 __fp_lock
00000000 l    df *ABS*	00000000 fputc.c
00000000 l    df *ABS*	00000000 fputs.c
00000000 l    df *ABS*	00000000 mallocr.c
00000000 l    df *ABS*	00000000 fvwrite.c
00000000 l    df *ABS*	00000000 fwalk.c
00000000 l    df *ABS*	00000000 locale.c
082524cc l     O .rwdata	00000020 lc_ctype_charset
082524ac l     O .rwdata	00000020 lc_message_charset
082524ec l     O .rwdata	00000038 lconv
00000000 l    df *ABS*	00000000 makebuf.c
00000000 l    df *ABS*	00000000 mallocr.c
00000000 l    df *ABS*	00000000 memchr.c
00000000 l    df *ABS*	00000000 memcmp.c
00000000 l    df *ABS*	00000000 mprec.c
0824dc10 l     O .rodata	0000000c p05.2768
00000000 l    df *ABS*	00000000 mallocr.c
00000000 l    df *ABS*	00000000 refill.c
0820dc14 l     F .text	0000001c lflush
00000000 l    df *ABS*	00000000 s_fpclassify.c
00000000 l    df *ABS*	00000000 sbrkr.c
00000000 l    df *ABS*	00000000 stdio.c
00000000 l    df *ABS*	00000000 strcmp.c
00000000 l    df *ABS*	00000000 vfprintf.c
0824dd44 l     O .rodata	00000010 blanks.4332
0824dd34 l     O .rodata	00000010 zeroes.4333
00000000 l    df *ABS*	00000000 vfprintf.c
0820f4f0 l     F .text	000000fc __sprint_r.part.0
0824dd64 l     O .rodata	00000010 blanks.4348
0824dd54 l     O .rodata	00000010 zeroes.4349
08210a7c l     F .text	000000bc __sbprintf
00000000 l    df *ABS*	00000000 writer.c
00000000 l    df *ABS*	00000000 closer.c
00000000 l    df *ABS*	00000000 mallocr.c
00000000 l    df *ABS*	00000000 fclose.c
00000000 l    df *ABS*	00000000 fputwc.c
00000000 l    df *ABS*	00000000 fstatr.c
00000000 l    df *ABS*	00000000 int_errno.c
00000000 l    df *ABS*	00000000 isattyr.c
00000000 l    df *ABS*	00000000 lseekr.c
00000000 l    df *ABS*	00000000 readr.c
00000000 l    df *ABS*	00000000 wcrtomb.c
00000000 l    df *ABS*	00000000 wctomb_r.c
00000000 l    df *ABS*	00000000 libgcc2.c
00000000 l    df *ABS*	00000000 libgcc2.c
00000000 l    df *ABS*	00000000 adddf3.c
00000000 l    df *ABS*	00000000 divdf3.c
00000000 l    df *ABS*	00000000 eqdf2.c
00000000 l    df *ABS*	00000000 gedf2.c
00000000 l    df *ABS*	00000000 ledf2.c
00000000 l    df *ABS*	00000000 muldf3.c
00000000 l    df *ABS*	00000000 subdf3.c
00000000 l    df *ABS*	00000000 fixdfsi.c
00000000 l    df *ABS*	00000000 floatsidf.c
00000000 l    df *ABS*	00000000 floatunsidf.c
00000000 l    df *ABS*	00000000 libgcc2.c
00000000 l    df *ABS*	00000000 libgcc2.c
00000000 l    df *ABS*	00000000 alt_flash_dev.c
00000000 l    df *ABS*	00000000 alt_fstat.c
082144e8 l     F .text	0000003c alt_get_errno
00000000 l    df *ABS*	00000000 alt_isatty.c
082145d4 l     F .text	0000003c alt_get_errno
00000000 l    df *ABS*	00000000 alt_lseek.c
082146b4 l     F .text	0000003c alt_get_errno
00000000 l    df *ABS*	00000000 alt_main.c
00000000 l    df *ABS*	00000000 alt_sbrk.c
08253f08 l     O .rwdata	00000004 heap_end
00000000 l    df *ABS*	00000000 alt_env_lock.c
08253f0c l     O .rwdata	00000004 lockid
08254080 l     O .bss	00000004 locks
00000000 l    df *ABS*	00000000 alt_malloc_lock.c
08253f10 l     O .rwdata	00000004 lockid
08254088 l     O .bss	00000004 locks
00000000 l    df *ABS*	00000000 os_core.c
0821622c l     F .text	00000048 OS_InitMisc
08216274 l     F .text	0000006c OS_InitRdyList
082163e0 l     F .text	000000e4 OS_InitTCBList
0821614c l     F .text	000000e0 OS_InitEventList
082162e0 l     F .text	00000080 OS_InitTaskIdle
08216360 l     F .text	00000080 OS_InitTaskStat
08216650 l     F .text	00000074 OS_SchedNew
00000000 l    df *ABS*	00000000 os_dbg.c
00000000 l    df *ABS*	00000000 os_flag.c
08218378 l     F .text	000000f4 OS_FlagTaskRdy
08218138 l     F .text	00000160 OS_FlagBlock
00000000 l    df *ABS*	00000000 os_mem.c
00000000 l    df *ABS*	00000000 os_q.c
00000000 l    df *ABS*	00000000 os_sem.c
00000000 l    df *ABS*	00000000 os_task.c
00000000 l    df *ABS*	00000000 os_time.c
00000000 l    df *ABS*	00000000 alt_sys_init.c
0821c428 l     F .text	00000034 alt_dev_reg
0825292c l     O .rwdata	0000106c jtag_uart_0
08253998 l     O .rwdata	00000124 lcd
08253abc l     O .rwdata	00000030 sgdma_rx
08253aec l     O .rwdata	00000030 sgdma_tx
00000000 l    df *ABS*	00000000 altera_avalon_jtag_uart_fd.c
00000000 l    df *ABS*	00000000 altera_avalon_jtag_uart_init.c
0821c978 l     F .text	000002a4 altera_avalon_jtag_uart_irq
0821cc1c l     F .text	00000104 altera_avalon_jtag_uart_timeout
00000000 l    df *ABS*	00000000 altera_avalon_jtag_uart_ioctl.c
00000000 l    df *ABS*	00000000 altera_avalon_jtag_uart_read.c
00000000 l    df *ABS*	00000000 altera_avalon_jtag_uart_write.c
00000000 l    df *ABS*	00000000 altera_avalon_lcd_16207.c
08253f8c l     O .rwdata	00000004 colstart
0821d3f8 l     F .text	000000b8 lcd_write_command
0821d4b0 l     F .text	000000d8 lcd_write_data
0821d588 l     F .text	000000d0 lcd_clear_screen
0821d658 l     F .text	000001ec lcd_repaint_screen
0821d844 l     F .text	000000cc lcd_scroll_up
0821d910 l     F .text	000002ac lcd_handle_escape
0821e0cc l     F .text	000000ac alt_lcd_16207_timeout
00000000 l    df *ABS*	00000000 altera_avalon_lcd_16207_fd.c
00000000 l    df *ABS*	00000000 altera_avalon_sgdma.c
0821e358 l     F .text	0000003c alt_get_errno
0821ef88 l     F .text	000000bc alt_avalon_sgdma_irq
00000000 l    df *ABS*	00000000 altera_avalon_timer_sc.c
0821f0ec l     F .text	00000078 alt_avalon_timer_sc_irq
00000000 l    df *ABS*	00000000 altera_avalon_tse.c
082540e2 l     O .bss	00000001 tse_system_count.4813
082540e3 l     O .bss	00000001 is_init.4895
00000000 l    df *ABS*	00000000 ins_tse_mac.c
00000000 l    df *ABS*	00000000 alt_iniche_close.c
00000000 l    df *ABS*	00000000 alt_iniche_dev.c
00000000 l    df *ABS*	00000000 alt_iniche_read.c
00000000 l    df *ABS*	00000000 alt_iniche_write.c
00000000 l    df *ABS*	00000000 ipnet.c
00000000 l    df *ABS*	00000000 ipstart.c
08254870 l     O .bss	0000003c closers
082540f8 l     O .bss	00000004 nclosers
00000000 l    df *ABS*	00000000 igmp_cmn.c
00000000 l    df *ABS*	00000000 bsdsock.c
00000000 l    df *ABS*	00000000 cksum.c
08253fa8 l     O .rwdata	00000004 cksum_select
00000000 l    df *ABS*	00000000 in_utils.c
082548ac l     O .bss	00000018 tistring
00000000 l    df *ABS*	00000000 netmain.c
00000000 l    df *ABS*	00000000 tk_crnos.c
00000000 l    df *ABS*	00000000 dhcpclnt.c
0822ba50 l     F .text	000000ac dh_getlong
00000000 l    df *ABS*	00000000 dhcputil.c
00000000 l    df *ABS*	00000000 pktalloc.c
00000000 l    df *ABS*	00000000 q.c
00000000 l    df *ABS*	00000000 udp_open.c
00000000 l    df *ABS*	00000000 asm_cksum.o
0822d5ec l       .text	00000000 done
0822d47c l       .text	00000000 asm1
0822d5a8 l       .text	00000000 loop0
0822d4a4 l       .text	00000000 loop
0822d5c4 l       .text	00000000 fold
00000000 l    df *ABS*	00000000 brdutils.c
08254164 l     O .bss	00000004 kbd_init.4233
08254160 l     O .bss	00000004 cpu_statusreg
00000000 l    df *ABS*	00000000 osportco.c
00000000 l    df *ABS*	00000000 targnios.c
00000000 l    df *ABS*	00000000 nptcp.c
08254198 l     O .bss	00000004 in_tcptick
00000000 l    df *ABS*	00000000 rawsock.c
00000000 l    df *ABS*	00000000 sockcall.c
0823196c l     F .text	0000008c sockargs
08230c90 l     F .text	000001dc t_getname
00000000 l    df *ABS*	00000000 socket.c
00000000 l    df *ABS*	00000000 socket2.c
00000000 l    df *ABS*	00000000 soselect.c
00000000 l    df *ABS*	00000000 tcp_in.c
00000000 l    df *ABS*	00000000 tcp_out.c
08239460 l     F .text	000000c8 bld_options
00000000 l    df *ABS*	00000000 tcp_subr.c
00000000 l    df *ABS*	00000000 tcp_timr.c
00000000 l    df *ABS*	00000000 tcp_usr.c
00000000 l    df *ABS*	00000000 tcpport.c
00000000 l    df *ABS*	00000000 udpsock.c
00000000 l    df *ABS*	00000000 alt_alarm_start.c
00000000 l    df *ABS*	00000000 alt_close.c
0823bc5c l     F .text	0000003c alt_get_errno
00000000 l    df *ABS*	00000000 alt_dcache_flush.c
00000000 l    df *ABS*	00000000 alt_dev.c
0823bde0 l     F .text	0000002c alt_dev_null_write
00000000 l    df *ABS*	00000000 alt_dev_llist_insert.c
0823be0c l     F .text	0000003c alt_get_errno
00000000 l    df *ABS*	00000000 alt_do_ctors.c
00000000 l    df *ABS*	00000000 alt_do_dtors.c
00000000 l    df *ABS*	00000000 alt_errno.c
00000000 l    df *ABS*	00000000 alt_find_dev.c
00000000 l    df *ABS*	00000000 alt_iic.c
00000000 l    df *ABS*	00000000 alt_iic_isr_register.c
00000000 l    df *ABS*	00000000 alt_io_redirect.c
0823c2dc l     F .text	000000c4 alt_open_fd
00000000 l    df *ABS*	00000000 alt_irq_vars.c
00000000 l    df *ABS*	00000000 alt_open.c
0823c41c l     F .text	0000003c alt_get_errno
0823c458 l     F .text	000000c4 alt_file_locked
00000000 l    df *ABS*	00000000 alt_read.c
0823c670 l     F .text	0000003c alt_get_errno
00000000 l    df *ABS*	00000000 alt_release_fd.c
00000000 l    df *ABS*	00000000 alt_remap_cached.c
00000000 l    df *ABS*	00000000 alt_tick.c
00000000 l    df *ABS*	00000000 alt_uncached_free.c
00000000 l    df *ABS*	00000000 alt_uncached_malloc.c
00000000 l    df *ABS*	00000000 alt_usleep.c
00000000 l    df *ABS*	00000000 alt_write.c
0823cbb8 l     F .text	0000003c alt_get_errno
00000000 l    df *ABS*	00000000 altera_nios2_qsys_irq.c
00000000 l    df *ABS*	00000000 os_cpu_a.o
00000040 l       *ABS*	00000000 OSCtxSw_SWITCH_PC
00000000 l    df *ABS*	00000000 os_cpu_c.c
00000014 l       *ABS*	00000000 OSTCBNext_OFFSET
00000032 l       *ABS*	00000000 OSTCBPrio_OFFSET
00000000 l       *ABS*	00000000 OSTCBStkPtr_OFFSET
00000000 l    df *ABS*	00000000 allports.c
082541d0 l     O .bss	00000004 inside_pktdemux
00000000 l    df *ABS*	00000000 timeouts.c
0823d4f4 l     F .text	0000018c check_interval_timers
082541dc l     O .bss	00000004 numtimers
00000000 l    df *ABS*	00000000 tk_misc.c
00000000 l    df *ABS*	00000000 alt_iniche_fcntl.c
00000000 l    df *ABS*	00000000 et_arp.c
082541e0 l     O .bss	00000004 arp_timer
082541e8 l     O .bss	00000004 cachetime
00000000 l    df *ABS*	00000000 iface.c
00000000 l    df *ABS*	00000000 ip.c
08254024 l     O .rwdata	00000004 uid
00000000 l    df *ABS*	00000000 ip_reasm.c
00000000 l    df *ABS*	00000000 ipdemux.c
00000000 l    df *ABS*	00000000 ipmc.c
00000000 l    df *ABS*	00000000 ipport.c
00000000 l    df *ABS*	00000000 ipraw.c
00000000 l    df *ABS*	00000000 iproute.c
00000000 l    df *ABS*	00000000 udp.c
08254228 l     O .bss	00000002 usocket
00000000 l    df *ABS*	00000000 igmp.c
00000000 l    df *ABS*	00000000 igmp2.c
00000000 l    df *ABS*	00000000 ipopt.c
00000000 l    df *ABS*	00000000 u_mctest.c
0825402c l     O .rwdata	00000004 iCounter.4951
00000000 l    df *ABS*	00000000 dhcsetup.c
00000000 l    df *ABS*	00000000 memdev.c
00000000 l    df *ABS*	00000000 parseip.c
082548c4 l     O .bss	0000001e nearBuf.4578
00000000 l    df *ABS*	00000000 tcpcksum.c
00000000 l    df *ABS*	00000000 in_pcb.c
00000000 l    df *ABS*	00000000 vfsfiles.c
00000000 l    df *ABS*	00000000 vfsport.c
00000000 l    df *ABS*	00000000 alt_busy_sleep.c
00000000 l    df *ABS*	00000000 alt_fcntl.c
0824a17c l     F .text	0000003c alt_get_errno
00000000 l    df *ABS*	00000000 alt_find_file.c
00000000 l    df *ABS*	00000000 alt_get_fd.c
00000000 l    df *ABS*	00000000 icmp.c
08253ecc l     O .rwdata	00000018 dsts
00000000 l    df *ABS*	00000000 atexit.c
00000000 l    df *ABS*	00000000 atoi.c
00000000 l    df *ABS*	00000000 exit.c
00000000 l    df *ABS*	00000000 malloc.c
00000000 l    df *ABS*	00000000 strcpy.c
00000000 l    df *ABS*	00000000 strncmp.c
00000000 l    df *ABS*	00000000 strncpy.c
00000000 l    df *ABS*	00000000 strtol.c
00000000 l    df *ABS*	00000000 vprintf.c
00000000 l    df *ABS*	00000000 vsprintf.c
00000000 l    df *ABS*	00000000 __atexit.c
00000000 l    df *ABS*	00000000 __call_atexit.c
00000000 l    df *ABS*	00000000 vfprintfr_1.c
00000000 l    df *ABS*	00000000 alt_exit.c
082035a8 g     F .text	00000018 putchar
0825e5e8 g     O .bss	00000014 soq
0820d538 g     F .text	00000074 _mprec_log10
08220458 g     F .text	000000d8 alt_tse_get_mac_info
08253f5e g     O .rwdata	00000002 OSTaskNameSize
0820d624 g     F .text	0000008c __any_on
08211018 g     F .text	00000054 _isatty_r
0824dc1c g     O .rodata	00000028 __mprec_tinytens
0823f284 g     F .text	00000724 ip_write_internal
082147c4 g     F .text	000000bc alt_main
0824b714 g     F .text	00000090 strcpy
0822cd98 g     F .text	000000ac pk_free
082035c0 g     F .text	000000c0 _puts_r
0825e794 g     O .bss	00000100 alt_irq
08253d6c g     O .rwdata	00000009 rtp_priority
0821106c g     F .text	00000060 _lseek_r
0824b320 g     F .text	00000314 icmp_timex
0822e694 g     F .text	00000044 m_freem
08249b2c g     F .text	00000048 vgetc
0822d74c g     F .text	00000020 clock_c
082541b0 g     O .bss	00000004 tcp_optionbuf
0823eda4 g     F .text	00000070 if_getbynum
08218b98 g     F .text	000000cc OS_MemInit
08254150 g     O .bss	00000004 dsc_rlyerrs
08254140 g     O .bss	00000004 dsc_releases
082297fc g     F .text	0000006c TK_OSTaskQuery
0822d45c g       .text	00000000 asm_cksum
08224068 g     F .text	000000f0 marvell_cfg_rgmii
0821c3c8 g     F .text	00000060 OSTimeSet
08249a34 g     F .text	000000f8 vgetc_locked
0822df84 g     F .text	00000020 post_task_setup
082428e4 g     F .text	00000358 ipr_stats
0823ac88 g     F .text	00000118 tcp_attach
08253fb8 g     O .rwdata	00000004 reqlist_len
0822fa54 g     F .text	00000078 tcp_tick
08228a50 g     F .text	0000007c print_ipad
08229704 g     F .text	000000f8 tcp_wakeup
08212f58 g     F .text	00000088 .hidden __eqdf2
08254040 g     O .bss	00000004 last_flash_sector_offset
082540fc g     O .bss	00000004 igmp_timers_are_running
08200d98 g     F .text	000000e4 led_bit_toggle
08237e94 g     F .text	0000012c tcp_pulloutofband
08221654 g     F .text	00000210 alt_tse_phy_print_profile
08214ea0 g     F .text	00000610 OSEventPendMulti
0825eaec g       *ABS*	00000000 __alt_heap_start
0823cf3c g     F .text	00000024 OSTaskCreateHook
0822c5d4 g     F .text	00000068 dhc_ifacedone
08223e08 g     F .text	00000098 marvell_phy_cfg
08242c8c g     F .text	00000380 ip_rcv
082497d8 g     F .text	0000014c vfseek
08234040 g     F .text	00000108 soqremque
08244860 g     F .text	000007a8 udpdemux
08225790 g     F .text	00000104 tse_mac_close
082033fc g     F .text	0000003c printf
082541fc g     O .bss	00000004 rt_mib
08253f36 g     O .rwdata	00000002 OSMboxEn
0822c4f4 g     F .text	00000058 dhc_state_init
0824bc30 g     F .text	0000001c vsprintf
0821e4b8 g     F .text	00000110 alt_avalon_sgdma_do_sync_transfer
08215508 g     F .text	0000004c OSIntEnter
0821112c g     F .text	0000009c _wcrtomb_r
0820dfa4 g     F .text	0000005c __sseek
0820ae94 g     F .text	00000010 __sinit
08243af8 g     F .text	0000010c in_delmulti
08208d68 g     F .text	00000140 __swbuf_r
08254214 g     O .bss	00000004 so_evtmap_create
08253f46 g     O .rwdata	00000002 OSQEn
08247e94 g     F .text	00000088 in_pcballoc
08253fd4 g     O .rwdata	00000002 socket_defaults
0820bab0 g     F .text	0000007c _setlocale_r
0823dc80 g     F .text	00000454 send_arp
0820acfc g     F .text	00000068 __sfmoreglue
082488f0 g     F .text	00000338 vfopen_locked
0825404c g     O .bss	00000004 SSSLEDCommandQ
08214b74 g     F .text	000000cc __malloc_unlock
0823cfa4 g     F .text	00000020 OSTaskStatHook
0823d414 g     F .text	00000054 prep_modules
08228050 g     F .text	0000013c bsd_i_sockoptlen
08254090 g     O .bss	00000001 OSLockNesting
08253fb0 g     O .rwdata	00000004 xids
08203fa0 g     F .text	0000001c strerror
0822069c g     F .text	00000a88 getPHYSpeed
08248e34 g     F .text	00000044 vfclose
0825e688 g     O .bss	0000002c tcb
08253f84 g     O .rwdata	00000002 OSDataSize
0823c80c g     F .text	00000034 alt_remap_cached
08254091 g     O .bss	00000001 OSRunning
0823eaec g     F .text	000002b8 grat_arp
08201118 g     F .text	0000005c get_ip_addr
0824791c g     F .text	00000094 inet_pton
0823eee8 g     F .text	00000090 reg_type
0825e18c g     O .bss	000000f0 dhc_states
08226ecc g     F .text	00000174 igmp_fasttimo
08248fe0 g     F .text	0000005c vunlink_flag_open_files
0822c2bc g     F .text	00000080 dhc_halt
0821ebd0 g     F .text	000003b8 alt_avalon_sgdma_construct_descriptor_burst
08254134 g     O .bss	00000004 dsc_acks
0825e6b4 g     O .bss	000000e0 tcpstat
082421dc g     F .text	0000034c ip_reasm_copy_queued_fragments_into_reassy_buffer
0822ebe0 g     F .text	0000009c dtom
08239360 g     F .text	00000100 tcp_setpersist
0823102c g     F .text	0000018c t_getsockopt
082030b4 g     F .text	0000015c memmove
08254144 g     O .bss	00000004 dsc_naks
0822f030 g     F .text	000005b0 ip_output
0823cff0 g     F .text	00000020 OSInitHookBegin
0824b634 g     F .text	00000054 icmp_du
08253fac g     O .rwdata	00000004 num_net_tasks
08254238 g     O .bss	00000004 vfiles
08253f7c g     O .rwdata	00000002 OSTmrSize
082470ac g     F .text	00000114 dhc_main_ipset
0820ae7c g     F .text	00000018 _cleanup
082413b0 g     F .text	000002b8 ip_reasm_process_first_fragment
0820c6b4 g     F .text	000000a8 _Balloc
08201614 g     F .text	00000198 get_board_mac_addr
08254094 g     O .bss	00000004 OSIdleCtr
08254050 g     O .bss	00000004 SSSLEDLightshowSem
08223068 g     F .text	000001c4 alt_tse_phy_set_adv_1000
08253f98 g     O .rwdata	00000001 max_mac_system
08246008 g     F .text	000005c8 ip_setmoptions
0821f70c g     F .text	000009fc alt_tse_system_add_sys
08212fe0 g     F .text	000000dc .hidden __gtdf2
08247438 g     F .text	0000002c md_fseek
0823cdbc g       .text	00000000 OSStartTsk
08216998 g     F .text	000002d4 OS_TCBInit
08241668 g     F .text	00000088 ip_reassm
0822c33c g     F .text	000001b8 dhc_reclaim
0825ea74 g     O .bss	00000010 udp_mib
04a80000 g     F .entry	00000000 __reset
082317d0 g     F .text	000000d8 t_shutdown
082027d0 g     F .text	000001f0 sss_handle_receive
08231298 g     F .text	00000140 t_recvfrom
08253f82 g     O .rwdata	00000002 OSTmrWheelTblSize
08246794 g     F .text	000006b4 u_mctest_run
0821e720 g     F .text	00000078 alt_avalon_sgdma_construct_stream_to_mem_desc_burst
08243c68 g     F .text	00000080 prep_ifaces
08254118 g     O .bss	00000001 to_netmain
0822ca48 g     F .text	000000c4 pk_alloc
08253f22 g     O .rwdata	00000002 OSEventSize
08200a10 g     F .text	00000298 alt_SSSErrorHandler
08254098 g     O .bss	00000001 OSPrioHighRdy
08210fbc g     F .text	0000005c _fstat_r
08251f68 g     O .rwdata	00000120 tse_mac_device
082294a4 g     F .text	00000048 tk_nettick
0823cf60 g     F .text	00000024 OSTaskDelHook
08254070 g     O .bss	00000004 errno
08203708 g     F .text	00000014 __srget
08235244 g     F .text	000000c4 in_pcbnotify
0820df20 g     F .text	00000008 __seofread
0823cd9c g       .text	00000000 OSStartHighRdy
0825e27c g     O .bss	00000014 lilfreeq
08200248 g     F .text	00000564 alt_uCOSIIErrorHandler
08243d10 g     F .text	0000002c evtmap_setup
0821ae64 g     F .text	000001e4 OSTaskCreateExt
0825411c g     O .bss	00000004 tcp_sleep_timeout
08234a08 g     F .text	000001b8 sbdrop
08254210 g     O .bss	00000004 net_system_exit
0825ea84 g     O .bss	00000068 icmp_mib
0820e2b4 g     F .text	0000123c ___svfiprintf_internal_r
08239df0 g     F .text	00000074 tcp_getseq
082440f4 g     F .text	000000b8 ip_raw_alloc
08223950 g     F .text	000004b8 alt_tse_phy_set_common_speed
08217c80 g     F .text	00000060 OSFlagPendGetFlagsRdy
08253f62 g     O .rwdata	00000002 OSTaskStatStkSize
0825dc60 g     O .bss	00000010 pmac_groups
0822ab64 g     F .text	00000a84 dhc_request
082328c0 g     F .text	0000074c soreceive
08216dfc g     F .text	00000308 OSFlagAccept
082191d0 g     F .text	000000b8 OSQFlush
08218c64 g     F .text	00000140 OSQAccept
08254078 g     O .bss	00000004 alt_argv
0825bee4 g       *ABS*	00000000 _gp
08242c3c g     F .text	00000050 ip_reasm_send_icmp_timex
0823ca80 g     F .text	00000138 usleep
08248e78 g     F .text	00000048 vfflush
0825e590 g     O .bss	00000040 resid_semaphore
0822890c g     F .text	00000144 hexdump
08241278 g     F .text	000000a0 ip_reasm_incr_mem_useage
08227530 g     F .text	00000080 igmp_leavegroup
0821acb8 g     F .text	000001ac OSTaskCreate
0821a7c8 g     F .text	000004f0 OSTaskChangePrio
0825408c g     O .bss	00000004 alt_heapsem
08239c3c g     F .text	000000f0 tcp_close
08216c6c g     F .text	00000190 OSDebugInit
0821b048 g     F .text	00000344 OSTaskDel
08249f4c g     F .text	0000005c vferror
0823ca28 g     F .text	00000058 alt_uncached_malloc
0821f210 g     F .text	00000060 tse_mac_initTransInfo2
08245444 g     F .text	000000bc udp_alloc
08253bd4 g     O .rwdata	00000180 alt_fd_list
0825a95c g     O .bss	00000370 OSFlagTbl
0825419c g     O .bss	00000008 mbstat
08202e74 g     F .text	00000070 _getc_r
08202ee4 g     F .text	00000088 getc
082035a0 g     F .text	00000008 _putchar_r
08215f2c g     F .text	000000b8 OS_EventTaskRemove
08245c50 g     F .text	00000144 igmpv2_chk_set_timer
082294ec g     F .text	00000030 TK_OSTimeDly
0823bfac g     F .text	00000090 alt_find_dev
08202f6c g     F .text	00000148 memcpy
0821f484 g     F .text	00000054 tse_mac_setMIImode
0825414c g     O .bss	00000004 dsc_rebind
0823d8a0 g     F .text	0000007c task_stats
0823043c g     F .text	00000050 DOMAIN_CHECK
0822f5e0 g     F .text	00000038 in_broadcast
08253f4c g     O .rwdata	00000002 OSRdyTblSize
08221124 g     F .text	00000048 alt_tse_phy_rd_mdio_addr
08254234 g     O .bss	00000004 vfsystems
08245394 g     F .text	000000b0 udp_socket
082540ec g     O .bss	00000004 MaxMtu
08234f20 g     F .text	00000140 sock_selscan
0820ab4c g     F .text	0000000c _cleanup_r
08214244 g     F .text	000000dc .hidden __floatsidf
08241050 g     F .text	000000c4 ip_reasm_match_frag_with_ire
082341a0 g     F .text	00000058 socantrcvmore
0821f270 g     F .text	000000e4 tse_mac_sTxWrite
08201e48 g     F .text	00000988 sss_exec_command
082033b8 g     F .text	00000014 perror
0823c3a0 g     F .text	0000007c alt_io_redirect
082130bc g     F .text	000000f4 .hidden __ltdf2
08254178 g     O .bss	00000004 netq_intmask
082478d0 g     F .text	0000004c hextoa
0824bf30 g       *ABS*	00000000 __DTOR_END__
082315cc g     F .text	00000204 t_send
0823bc98 g     F .text	000000d0 alt_close
082541a4 g     O .bss	00000002 select_wait
08203680 g     F .text	00000014 puts
0822902c g     F .text	00000044 std_out
0825dc80 g     O .bss	00000030 tse_iniche_dev_driver_data
08249b74 g     F .text	00000124 vfslookup_locked
08232180 g     F .text	00000098 soaccept
08214c40 g     F .text	00000120 OSEventNameGet
08253f30 g     O .rwdata	00000002 OSFlagMax
08203944 g     F .text	0000065c _strerror_r
0825e5fc g     O .bss	0000003c tcpmib
082319f8 g     F .text	00000098 t_errno
08243d3c g     F .text	000000d8 ip_raw_open
0820de04 g     F .text	00000074 __fpclassifyd
0822b948 g     F .text	00000108 dhc_decline
0820d494 g     F .text	000000a4 __ratio
08215554 g     F .text	000000f8 OSIntExit
08254028 g     O .rwdata	00000004 ipRoutes
08248f90 g     F .text	00000050 vfeof
08210a60 g     F .text	0000001c __vfiprintf_internal
0823a0d4 g     F .text	00000060 tcp_canceltimers
0822a3d0 g     F .text	000001e4 dhc_buildheader
08253f6a g     O .rwdata	00000002 OSTCBSize
0821e818 g     F .text	0000008c alt_avalon_sgdma_construct_mem_to_stream_desc_burst
08254099 g     O .bss	00000001 OSPrioCur
0821ce78 g     F .text	000002bc altera_avalon_jtag_uart_read
0824b6ec g     F .text	00000014 malloc
08254230 g     O .bss	00000004 inpcb_cachemiss
082033cc g     F .text	00000030 _printf_r
08247a90 g     F .text	000000c4 inet46_addr
0825422c g     O .bss	00000004 inpcb_cachehits
08202c6c g     F .text	00000064 .hidden __udivsi3
08253b94 g     O .rwdata	0000000b tcp_outflags
0825dcb0 g     O .bss	00000130 tse
08214610 g     F .text	000000a4 isatty
08220108 g     F .text	00000168 alt_tse_sys_enable_mdio_sharing
08253f50 g     O .rwdata	00000002 OSStkWidth
0824dc6c g     O .rodata	000000c8 __mprec_tens
08248768 g     F .text	00000070 vf_alloc_and_link_vop
08253f44 g     O .rwdata	00000002 OSPtrSize
08254200 g     O .bss	00000004 ipr_curr_mem
08226b84 g     F .text	00000070 exit_hook
08254100 g     O .bss	00000004 igmp_cticks
082203d8 g     F .text	00000080 alt_tse_get_mac_info_index
0825418c g     O .bss	00000004 mheap_sem_ptr
0823821c g     F .text	00000048 ip4_tcpmss
0820bb2c g     F .text	0000000c __locale_charset
08253f24 g     O .rwdata	00000002 OSEventTblSize
0825e9f8 g     O .bss	00000014 netlist
0823300c g     F .text	00000098 soshutdown
0823cd10 g       .text	00000000 OSCtxSw
0823d3a0 g     F .text	00000050 packet_check
0822b5e8 g     F .text	0000027c dhc_setip
0825e638 g     O .bss	00000014 mbufq
08232130 g     F .text	00000050 soabort
0825406c g     O .bss	00000004 __malloc_top_pad
0825409c g     O .bss	00000004 OSTCBList
0822d088 g     F .text	00000100 qdel
0823d1fc g     F .text	00000164 station_state
08244238 g     F .text	00000154 rt_lookup
082541bc g     O .bss	00000004 alt_fd_list_lock
08253ef0 g     O .rwdata	00000004 __mb_cur_max
082275b0 g     F .text	00000318 igmp_validate
0820bb5c g     F .text	0000000c _localeconv_r
082268e0 g     F .text	000002a4 ip_startup
08230748 g     F .text	00000254 t_accept
08233c38 g     F .text	00000098 soisdisconnecting
0820cac0 g     F .text	0000003c __i2b
0820b46c g     F .text	000004bc __sfvwrite_r
0821e950 g     F .text	0000005c alt_avalon_sgdma_stop
08226320 g     F .text	000003a4 pktdemux
0825accc g     O .bss	00000c30 OSMemTbl
082540a0 g     O .bss	00000001 OSTickStepState
082211c4 g     F .text	00000128 alt_tse_phy_wr_mdio_reg
0822d624 g     F .text	00000094 kbhit
08230e6c g     F .text	000001c0 t_setsockopt
0820de78 g     F .text	00000054 _sbrk_r
08253d54 g     O .rwdata	00000018 icmpdu_types
08221864 g     F .text	000006a4 alt_tse_mac_group_init
0824903c g     F .text	00000200 vunlink
08224560 g     F .text	00000a60 tse_mac_init
08253f48 g     O .rwdata	00000002 OSQMax
0822876c g     F .text	000000a4 ccksum
082487d8 g     F .text	000000c8 vf_alloc_buffer
08254224 g     O .bss	00000004 cachedRoute
08253fbc g     O .rwdata	00000004 lilbufs
0825b8fc g     O .bss	00000800 OSTaskStatStk
08247464 g     F .text	00000024 md_ftell
08228810 g     F .text	00000054 cksum
082187d4 g     F .text	000000f0 OSMemNameGet
08231d64 g     F .text	00000110 sofree
082540f4 g     O .bss	00000004 ifNumber
08253f28 g     O .rwdata	00000002 OSFlagEn
082110cc g     F .text	00000060 _read_r
08253f6e g     O .rwdata	00000002 OSTimeTickHookEn
0823bd68 g     F .text	00000078 alt_dcache_flush
08219680 g     F .text	00000168 OSQPost
0821846c g     F .text	000000a4 OS_FlagUnlink
08253ffc g     O .rwdata	00000004 alt_max_fd
08216518 g     F .text	00000068 OS_MemCopy
08253fc4 g     O .rwdata	00000004 bigbufs
0823ada0 g     F .text	000000cc tcp_disconnect
08216580 g     F .text	000000d0 OS_Sched
08210cb0 g     F .text	000000f0 _fclose_r
082186e4 g     F .text	000000f0 OSMemGet
0821b674 g     F .text	000001b4 OSTaskNameSet
0820ab14 g     F .text	00000030 fflush
08254068 g     O .bss	00000004 __malloc_max_sbrked_mem
082540a4 g     O .bss	00000004 OSCtxSwCtr
0825e104 g     O .bss	00000064 igmpstats
0823cfc4 g     F .text	0000002c OSTimeTickHook
0822aa80 g     F .text	000000e4 dhc_rx_offer
0822818c g     F .text	0000010c bsd_getsockopt
08253f32 g     O .rwdata	00000002 OSFlagNameSize
0825ea5c g     O .bss	00000018 ire_stats
08200ef0 g     F .text	000001d4 LEDManagementTask
0823afd8 g     F .text	000001a0 udp_soinput
0822cfd8 g     F .text	000000b0 putq
08215fe4 g     F .text	00000100 OS_EventTaskRemoveMulti
08254114 g     O .bss	00000004 iniche_net_ready
08211dc4 g     F .text	000008ac .hidden __adddf3
08215ddc g     F .text	00000150 OS_EventTaskWaitMulti
08249f04 g     F .text	00000048 isvfile
082331a0 g     F .text	00000430 sosetopt
0822934c g     F .text	000000e0 netmain
08238264 g     F .text	000000f8 tcp_mss
0820d23c g     F .text	0000010c __b2d
08247574 g     F .text	000002fc parse_ipad
08248748 g     F .text	00000020 get_vfopen_error
08253f4a g     O .rwdata	00000002 OSQSize
0821188c g     F .text	00000538 .hidden __umoddi3
082146f0 g     F .text	000000d4 lseek
0823d468 g     F .text	0000008c inet_timer
0821a130 g     F .text	0000020c OSSemPend
082213b8 g     F .text	0000029c alt_tse_phy_add_profile_default
08222ad0 g     F .text	00000598 alt_tse_phy_get_cap
08201abc g     F .text	000002c4 sss_send_menu
08253ee8 g     O .rwdata	00000004 _global_impure_ptr
08228cec g     F .text	00000154 print_eth
08248c28 g     F .text	00000050 vfopen
0823c6ac g     F .text	000000fc alt_read
0820d6b0 g     F .text	00000564 _realloc_r
082007ac g     F .text	00000264 alt_NetworkErrorHandler
08253f34 g     O .rwdata	00000002 OSLowestPrio
0825eaec g       *ABS*	00000000 __bss_end
0823c1ec g     F .text	000000f0 alt_iic_isr_register
0821e394 g     F .text	00000124 alt_avalon_sgdma_do_async_transfer
0822e58c g     F .text	00000108 m_free
0823d050 g     F .text	00000024 OSTCBInitHook
08225750 g     F .text	00000040 tse_mac_stats
0822cb0c g     F .text	0000028c pk_validate
08253f7a g     O .rwdata	00000002 OSTmrCfgTicksPerSec
0823c8dc g     F .text	00000108 alt_tick
082484c8 g     F .text	00000254 in_pcblookup
0822c6ec g     F .text	000000c0 find_opt
08211314 g     F .text	00000578 .hidden __udivdi3
0822e404 g     F .text	00000188 m_getnbuf
0822ce64 g     F .text	000000bc dump_buf_estats
08210f18 g     F .text	00000024 _fputwc_r
08222970 g     F .text	00000160 alt_tse_phy_check_link
082541f8 g     O .bss	00000004 arpRepsOut
08253f1c g     O .rwdata	00000002 OSEventEn
0824dc44 g     O .rodata	00000028 __mprec_bigtens
0820c8a4 g     F .text	00000104 __s2b
08253f76 g     O .rwdata	00000002 OSTmrCfgNameSize
08214320 g     F .text	000000a8 .hidden __floatunsidf
0823d074 g     F .text	000000f4 netmain_init
08223f84 g     F .text	000000e4 marvell_cfg_sgmii
082227b4 g     F .text	000001bc alt_tse_phy_restart_an
0820cf7c g     F .text	00000060 __mcmp
08254130 g     O .bss	00000004 dsc_requests
08239684 g     F .text	00000400 tcp_respond
0823b3b4 g     F .text	000002d4 udp4_sockbind
0825417c g     O .bss	00000004 old_mode
082272dc g     F .text	00000254 igmp_joingroup
0822f70c g     F .text	00000348 so_icmpdu
0820aeb4 g     F .text	00000018 __fp_lock_all
08254244 g     O .bss	00000004 vfs_dir_stale
0823c1a0 g     F .text	0000004c alt_ic_irq_enabled
0825dc70 g     O .bss	00000010 pphy_profiles
08242528 g     F .text	000000d8 ip_reasm_process_timer_tick
08249fa8 g     F .text	00000058 vclearerr
0822868c g     F .text	000000e0 bsd_setsockopt
0822eb8c g     F .text	00000054 mbuf_len
08218298 g     F .text	000000e0 OS_FlagInit
0823c840 g     F .text	0000009c alt_alarm_stop
08249ce0 g     F .text	000001cc strippath
08253fb4 g     O .rwdata	00000004 reqlist
08229590 g     F .text	00000174 tcp_sleep
0824bb98 g     F .text	0000001c strtol
08229c20 g     F .text	000007b0 dhc_upcall
0823ae6c g     F .text	000000d0 tcp_usrclosed
08000000 g       *ABS*	00000000 __alt_mem_descriptor_memory
08254168 g     O .bss	00000004 cticks_factor
08253f58 g     O .rwdata	00000002 OSTaskIdleStkSize
08247f74 g     F .text	00000210 in_pcbbind
082541c0 g     O .bss	00000004 alt_irq_active
08219d68 g     F .text	000000b0 OSSemAccept
082189d8 g     F .text	000000d8 OSMemPut
08218510 g     F .text	000001d4 OSMemCreate
082540a8 g     O .bss	00000004 OSIdleCtrMax
0820012c g     F .exceptions	000000d4 alt_irq_handler
08253bac g     O .rwdata	00000028 alt_dev_null
08253fd6 g     O .rwdata	00000001 tcprexmtthresh
08253f6c g     O .rwdata	00000002 OSTicksPerSec
0823ef78 g     F .text	00000094 if_killsocks
0823f9a8 g     F .text	00000220 ip_write
0824300c g     F .text	000005cc ip_rcv_phase2
08230c4c g     F .text	00000044 t_getsockname
0823099c g     F .text	0000026c t_connect
08253fd0 g     O .rwdata	00000004 TCPTV_MSL
0825e290 g     O .bss	00000010 memestats
0822269c g     F .text	00000118 alt_tse_phy_init
0822d6b8 g     F .text	0000005c getch
08253e4c g     O .rwdata	00000080 vfs_root_path
08230c08 g     F .text	00000044 t_getpeername
0821e9ac g     F .text	00000064 alt_avalon_sgdma_check_descriptor_status
08241318 g     F .text	00000098 ip_reasm_decr_mem_useage
0823432c g     F .text	00000088 soreserve
0823cd10 g       .text	00000000 OSIntCtxSw
0822e1c8 g     F .text	00000034 npalloc
0820c9a8 g     F .text	00000068 __hi0bits
08254220 g     O .bss	00000004 ipraw_eps
0822c7ac g     F .text	0000029c pk_init
08247264 g     F .text	0000015c md_fread
08224fc0 g     F .text	000002f8 tse_mac_raw_send
082141c4 g     F .text	00000080 .hidden __fixdfsi
0825e894 g     O .bss	00000064 intimers
08234404 g     F .text	0000004c sbrelease
08235388 g     F .text	000000f0 ifd_clr
08234cc0 g     F .text	00000090 sbdroprecord
08228e40 g     F .text	0000007c uslash
0823cbf4 g     F .text	000000f8 alt_write
082541f4 g     O .bss	00000004 arpRepsIn
08229aa0 g     F .text	00000088 dhc_get_srv_ipaddr
0823d680 g     F .text	00000160 in_timerset
082540ac g     O .bss	00000004 OSTCBFreeList
0821a33c g     F .text	0000016c OSSemPendAbort
0823835c g     F .text	00001004 tcp_output
082541cc g     O .bss	00000004 activehost
08253ff4 g     O .rwdata	00000008 alt_dev_list
08229148 g     F .text	00000204 parse_args
08254180 g     O .bss	00000004 global_TCPwakeup_setIndx
0820aee4 g     F .text	00000044 _fputc_r
08225a94 g     F .text	00000068 write
0821eaf0 g     F .text	00000080 alt_avalon_sgdma_enable_desc_poll
0822e1fc g     F .text	00000040 npfree
08203438 g     F .text	000000a0 _putc_r
0823e33c g     F .text	000002c0 arpReply
08228890 g     F .text	0000007c nextarg
08253f70 g     O .rwdata	00000002 OSVersionNbr
08241c54 g     F .text	00000530 ip_reasm_process_subsequent_fragments
08254034 g     O .rwdata	00000004 pton_error
08254124 g     O .bss	00000004 dsc_errors
082548e4 g     O .bss	00002000 SSSInitialTaskStk
0825dde0 g     O .bss	00000014 rcvdq
08235308 g     F .text	00000080 tcp_notify
08214524 g     F .text	000000b0 fstat
08202d50 g     F .text	00000024 fprintf
08232218 g     F .text	000000b8 soconnect
082441f0 g     F .text	00000048 ip_raw_maxalloc
082130bc g     F .text	000000f4 .hidden __ledf2
08224158 g     F .text	00000078 DP83848C_link_status_read
0822a5b4 g     F .text	000004cc dhc_discover
082018d8 g     F .text	000000a4 SSSCreateOSDataStructs
08248444 g     F .text	00000084 in_setpeeraddr
08253f18 g     O .rwdata	00000004 OSEndiannessTest
0822d714 g     F .text	00000038 clock_init
08248ec0 g     F .text	000000d0 vfgets
0823da04 g     F .text	00000180 et_send
0820ccf4 g     F .text	00000140 __pow5mult
0820f604 g     F .text	0000145c ___vfiprintf_internal_r
08254060 g     O .bss	00000004 __nlocale_changed
08202cd0 g     F .text	00000058 .hidden __umodsi3
08247870 g     F .text	00000060 inet_addr
082411e4 g     F .text	00000094 ip_reasm_check_mem_useage
082330a4 g     F .text	000000fc sorflush
0824bbb4 g     F .text	0000001c vprintf
0825e3a4 g     O .bss	000000fc global_tcb_ext
08240014 g     F .text	00000420 ip_fragment_lc
0825ddf4 g     O .bss	00000300 netstatic
0823050c g     F .text	00000164 t_bind
0821e798 g     F .text	00000080 alt_avalon_sgdma_construct_mem_to_stream_desc
08253f2a g     O .rwdata	00000002 OSFlagGrpSize
0822d384 g     F .text	000000d8 udp_close
0821e8a4 g     F .text	00000054 alt_avalon_sgdma_register_callback
0822dd3c g     F .text	000001fc alt_iniche_init
0825eaec g       *ABS*	00000000 end
0822d930 g     F .text	00000088 UNLOCK_NET_RESOURCE
08224308 g     F .text	00000258 prep_tse_mac
082311b8 g     F .text	000000e0 t_recv
0821dbbc g     F .text	00000510 altera_avalon_lcd_16207_write
0824923c g     F .text	0000018c vfread
0822623c g     F .text	000000e4 netclose
082029c0 g     F .text	000001b4 SSSSimpleSocketServerTask
0824b6a8 g     F .text	0000000c _atoi_r
0821f528 g     F .text	000001e4 alt_tse_phy_add_profile
08253fe0 g     O .rwdata	00000004 tcp_keepintvl
0821c830 g     F .text	00000148 altera_avalon_jtag_uart_init
082167e8 g     F .text	000000e4 OS_TaskStat
08254128 g     O .bss	00000004 dsc_discovers
08253f88 g     O .rwdata	00000004 tse_mac_name
08253b4c g     O .rwdata	00000018 tcp_protosw
0824bf30 g       *ABS*	00000000 __CTOR_LIST__
08254240 g     O .bss	00000004 vfopen_error
08380000 g       *ABS*	00000000 __alt_stack_pointer
082541b4 g     O .bss	00000004 tcp_maxidle
08254154 g     O .bss	00000004 firstudp
0821eb70 g     F .text	00000060 alt_avalon_sgdma_disable_desc_poll
0821f164 g     F .text	0000007c alt_avalon_timer_sc_init
082143c8 g     F .text	00000064 .hidden __clzsi2
0821d134 g     F .text	000002c4 altera_avalon_jtag_uart_write
0821e5c8 g     F .text	00000074 alt_avalon_sgdma_construct_mem_to_mem_desc
0820aea4 g     F .text	00000004 __sfp_lock_acquire
0820c554 g     F .text	000000e4 memchr
082164c4 g     F .text	00000054 OS_MemClr
08206a98 g     F .text	000021f8 ___vfprintf_internal_r
0823cde0 g     F .text	0000015c OSTaskStkInit
0820371c g     F .text	00000058 _sprintf_r
0821e6c0 g     F .text	00000060 alt_avalon_sgdma_construct_stream_to_mem_desc
0820b15c g     F .text	00000310 _free_r
08245d94 g     F .text	00000140 igmpv2_chk4_rtr_alert_opt
0820bb38 g     F .text	00000010 __locale_mb_cur_max
082318a8 g     F .text	000000c4 t_socketclose
082568e4 g     O .bss	00002000 LED7SegLightshowTaskStk
08215b34 g     F .text	00000198 OS_EventTaskRdy
0824bd64 g     F .text	00000180 __call_exitprocs
08203694 g     F .text	00000074 __srget_r
082252b8 g     F .text	000000ac tse_sgdmaRx_isr
082540b0 g     O .bss	00000001 OSCPUUsage
0825e0f4 g     O .bss	00000010 nets
0822d86c g     F .text	000000c4 LOCK_NET_RESOURCE
0822b864 g     F .text	000000e4 dhc_resetip
0825405c g     O .bss	00000004 __mlocale_changed
08225510 g     F .text	00000240 tse_mac_rcv
0823048c g     F .text	00000080 t_socket
08253ef4 g     O .rwdata	00000004 __malloc_sbrk_base
08200200 g     F .text	00000048 _start
0823d9bc g     F .text	00000048 etainit
082541c4 g     O .bss	00000004 _alt_tick_rate
0823d3f0 g     F .text	00000024 mcastlist
08219288 g     F .text	0000028c OSQPend
08204508 g     F .text	000003b0 strstr
0825e2a0 g     O .bss	000000f0 pktlog
08245930 g     F .text	00000134 igmpv2_process_report
082354f0 g     F .text	00000078 ifd_isset
0824474c g     F .text	00000114 del_route
0821ea10 g     F .text	00000054 alt_avalon_sgdma_open
08206a90 g     F .text	00000008 _user_strerror
0821bf34 g     F .text	00000104 OSTimeDly
082010c4 g     F .text	00000054 get_mac_addr
08231c94 g     F .text	000000d0 solisten
0820ce34 g     F .text	00000148 __lshift
082541c8 g     O .bss	00000004 _alt_nticks
082212ec g     F .text	000000cc alt_tse_phy_rd_mdio_reg
08225a24 g     F .text	00000070 read
0821c494 g     F .text	00000238 alt_sys_init
08239d2c g     F .text	0000004c tcp_quench
0820e0e4 g     F .text	000001d0 __ssprint_r
08228ebc g     F .text	00000170 ns_printf
0823ee14 g     F .text	000000d4 isbcast
0822d9b8 g     F .text	0000024c TK_NEWTASK
0824bc4c g     F .text	00000118 __register_exitproc
082540b1 g     O .bss	00000001 OSTaskCtr
08241114 g     F .text	000000d0 ip_reasm_determine_type_of_frag
082540e0 g     O .bss	00000001 phy_profile_count
0824b7a4 g     F .text	000000d0 strncmp
08220364 g     F .text	00000074 alt_tse_get_mac_group_index
0821c038 g     F .text	00000160 OSTimeDlyHMSM
08243e14 g     F .text	000000bc ip_raw_close
0820cafc g     F .text	000001f8 __multiply
08253d9c g     O .rwdata	000000b0 mdlist
0821cd20 g     F .text	00000068 altera_avalon_jtag_uart_close
08226dec g     F .text	000000e0 igmp_input
0823ff4c g     F .text	000000c8 ip_raw_write
082493c8 g     F .text	000003b0 vfwrite_locked
0824b874 g     F .text	000000ec strncpy
0825412c g     O .bss	00000004 dsc_offers
08254848 g     O .bss	00000028 __malloc_current_mallinfo
08253f1e g     O .rwdata	00000002 OSEventMax
08247b54 g     F .text	0000006c inet_setport
0820d348 g     F .text	0000014c __d2b
0821a4a8 g     F .text	00000110 OSSemPost
08237d0c g     F .text	00000188 tcp_dooptions
08254054 g     O .bss	00000004 SSSLEDEventFlag
08233b34 g     F .text	00000104 soisconnected
082156d8 g     F .text	000000dc OSSchedUnlock
08243ce8 g     F .text	00000028 netexit
08201174 g     F .text	000001bc get_serial_number
08254110 g     O .bss	00000004 nettick_wakes
0822116c g     F .text	00000058 alt_tse_phy_wr_mdio_addr
082541a8 g     O .bss	00000001 tcpprintfs
0823d7e0 g     F .text	0000009c in_timerkill
0824580c g     F .text	00000124 igmpv2_input
0825413c g     O .bss	00000004 dsc_declines
0821c6cc g     F .text	00000060 altera_avalon_jtag_uart_read_fd
08228864 g     F .text	0000002c do_trap
0824a3e0 g     F .text	000000dc alt_get_fd
08228298 g     F .text	000000f4 bsd_ioctl
082540b4 g     O .bss	00000004 OSMemFreeList
08215824 g     F .text	000000b0 OSStatInit
0822ee60 g     F .text	000001d0 tcp_rcv
08228ca4 g     F .text	00000048 panic
08254248 g     O .bss	00000004 vfs_open_files
0824a024 g     F .text	00000158 alt_busy_sleep
08226754 g     F .text	0000018c ip2mac
08218074 g     F .text	000000c4 OSFlagQuery
08235060 g     F .text	000001e4 sock_select
08246e48 g     F .text	00000264 dhc_setup
08239528 g     F .text	00000054 tcp_init
08254184 g     O .bss	00000004 cticks
08254119 g     O .bss	00000001 to_nettick
08253f54 g     O .rwdata	00000002 OSTaskCreateExtEn
08210b98 g     F .text	00000054 _close_r
08225afc g     F .text	000005e8 Netinit
0822dfa4 g     F .text	00000038 prep_armintcp
082439ac g     F .text	0000014c in_addmulti
0823957c g     F .text	00000108 tcp_template
08223628 g     F .text	00000328 alt_tse_phy_get_common_speed
0822ec7c g     F .text	00000070 remque
0824bbd0 g     F .text	00000010 _vprintf_r
082355cc g     F .text	00000410 tcp_reass
08247cf4 g     F .text	000001a0 tcp_cksum
0823b688 g     F .text	00000380 udp4_socksend
08248c78 g     F .text	000001bc vfclose_locked
08235478 g     F .text	00000078 ifd_set
0820c638 g     F .text	0000007c memcmp
08215b14 g     F .text	00000020 OS_Dummy
0821c78c g     F .text	00000050 altera_avalon_jtag_uart_close_fd
0822c63c g     F .text	000000b0 dhc_set_state
082540f0 g     O .bss	00000004 NDEBUG
0825eaec g       *ABS*	00000000 __alt_stack_base
08254044 g     O .bss	00000004 last_flash_sector
0821c7dc g     F .text	00000054 altera_avalon_jtag_uart_ioctl_fd
082343b4 g     F .text	00000050 sbreserve
082540e1 g     O .bss	00000001 mac_group_count
08243ed0 g     F .text	00000224 ip_raw_input
08202d74 g     F .text	000000cc _fwrite_r
08253fc0 g     O .rwdata	00000004 lilbufsiz
08235568 g     F .text	00000064 ifd_get
082342a0 g     F .text	0000008c sbwakeup
08208ec0 g     F .text	00000154 __swsetup_r
082241d0 g     F .text	00000138 altera_eth_tse_init
0825c0fc g     O .bss	000001e0 OSQTbl
08237fc0 g     F .text	0000025c tcp_xmit_timer
08225364 g     F .text	000001ac tse_sgdma_read_init
08212670 g     F .text	000008e8 .hidden __divdf3
0820ad64 g     F .text	00000118 __sfp
082014d8 g     F .text	0000013c generate_mac_addr
0823f0f4 g     F .text	00000190 ip_bldhead
0820d5ac g     F .text	00000078 __copybits
08234450 g     F .text	000000a0 sbappend
08252524 g     O .rwdata	00000408 __malloc_av_
0820aeb0 g     F .text	00000004 __sinit_lock_release
082540b8 g     O .bss	00000004 OSTCBHighRdy
082131b0 g     F .text	00000718 .hidden __muldf3
0823fbc8 g     F .text	00000384 ip_write2
0820decc g     F .text	00000054 __sread
08254020 g     O .rwdata	00000004 arp_ageout
082540bc g     O .bss	00000004 OSQFreeList
08221f08 g     F .text	00000424 alt_tse_mac_get_phy
0823f00c g     F .text	000000e8 ip_init
0824a2d8 g     F .text	00000108 alt_find_file
082441ac g     F .text	00000044 ip_raw_free
0823e240 g     F .text	000000fc make_arp_entry
0823be48 g     F .text	000000a4 alt_dev_llist_insert
08214a54 g     F .text	00000120 __malloc_lock
08202d28 g     F .text	00000028 _fprintf_r
08214880 g     F .text	000000b0 sbrk
0823af7c g     F .text	0000005c udp_lookup
082048b8 g     F .text	000021d8 ___svfprintf_internal_r
0821e8f8 g     F .text	00000058 alt_avalon_sgdma_start
08214d60 g     F .text	00000140 OSEventNameSet
0820aab8 g     F .text	0000005c _fflush_r
08220610 g     F .text	0000008c alt_tse_mac_set_duplex
08210bec g     F .text	000000c4 _calloc_r
0822e0e8 g     F .text	000000e0 npfree_base
082540c0 g     O .bss	00000001 OSRdyGrp
08247218 g     F .text	00000028 md_fopen
08253b64 g     O .rwdata	00000018 udp_protosw
08253f00 g     O .rwdata	00000008 alt_flash_dev_list
082483c0 g     F .text	00000084 in_setsockaddr
0825403c g       *ABS*	00000000 __bss_start
08200e7c g     F .text	00000074 LED7SegLightshowTask
082344f0 g     F .text	000000d8 sbappendrecord
0825ea0c g     O .bss	00000050 ip_mib
08203210 g     F .text	00000128 memset
082322d0 g     F .text	00000098 sodisconnect
08200d18 g     F .text	00000080 main
0825407c g     O .bss	00000004 alt_envp
08254064 g     O .bss	00000004 __malloc_max_total_mem
08201a4c g     F .text	00000070 sss_reset_connection
0822e9cc g     F .text	000001c0 m_adj
0821c72c g     F .text	00000060 altera_avalon_jtag_uart_write_fd
08208ea8 g     F .text	00000018 __swbuf
08247488 g     F .text	000000c8 md_fgetc
0824de88 g     O .rodata	00000100 OSUnMapTbl
08240a9c g     F .text	000002a8 ip_dump
08229898 g     F .text	00000208 tk_stats
08253f9c g     O .rwdata	00000008 alt_iniche_dev_list
082588e4 g     O .bss	00000078 SSSLEDCommandQTbl
0821e178 g     F .text	00000180 altera_avalon_lcd_16207_init
08253f90 g     O .rwdata	00000008 alt_sgdma_list
08253f4e g     O .rwdata	00000002 OSSemEn
0825416c g     O .bss	00000004 OS_TPS
0822fcf0 g     F .text	0000074c rawip_usrreq
08217ce0 g     F .text	00000394 OSFlagPost
0820e000 g     F .text	00000008 __sclose
08247a34 g     F .text	0000005c print46_addr
08380000 g       *ABS*	00000000 __alt_heap_limit
08210da0 g     F .text	00000014 fclose
08215ccc g     F .text	00000110 OS_EventTaskWait
0824b960 g     F .text	00000238 _strtol_r
08228acc g     F .text	000001d8 print_uptime
082168cc g     F .text	000000cc OS_TaskStatStkChk
0821b38c g     F .text	00000150 OSTaskDelReq
08209214 g     F .text	00001688 _dtoa_r
0820bd48 g     F .text	0000080c _malloc_r
08247550 g     F .text	00000024 md_unlink
0821f3fc g     F .text	00000088 tse_mac_SwReset
08211288 g     F .text	00000030 __ascii_wctomb
08247f1c g     F .text	00000058 in_pcbdetach
08254000 g     O .rwdata	00000004 alt_errno
08254030 g     O .rwdata	00000004 mdlist_size
082157b4 g     F .text	00000070 OSStart
08246760 g     F .text	00000034 u_mctest_init
082149f4 g     F .text	00000060 __env_unlock
0820b928 g     F .text	000000c4 _fwalk
0821b828 g     F .text	000001d4 OSTaskResume
08218ab0 g     F .text	000000e8 OSMemQuery
08247bc0 g     F .text	00000134 convert_ip
0823e0d4 g     F .text	0000016c find_oldest_arp
08253f60 g     O .rwdata	00000002 OSTaskStatEn
082541ec g     O .bss	00000004 arpReqsIn
082488a0 g     F .text	00000050 vf_free_buffer
0824a1b8 g     F .text	00000120 alt_fcntl
08253f3a g     O .rwdata	00000002 OSMemMax
082197e8 g     F .text	00000170 OSQPostFront
0822d5f0 g     F .text	00000034 dtrap
08253fcc g     O .rwdata	00000004 kb_last
082034d8 g     F .text	000000c8 putc
08202b74 g     F .text	00000084 .hidden __divsi3
082202b0 g     F .text	00000048 alt_tse_mac_set_common_speed
082540c1 g     O .bss	00000003 OSRdyTbl
08253f14 g     O .rwdata	00000002 OSDebugEn
0822dfdc g     F .text	0000010c npalloc_base
08226bf4 g     F .text	000000d0 ip_exit
0820b038 g     F .text	00000124 _malloc_trim_r
0824bf30 g       *ABS*	00000000 __CTOR_END__
08253f2c g     O .rwdata	00000002 OSFlagNodeSize
08254120 g     O .bss	00000004 dhc_conn
0822d76c g     F .text	0000005c cticks_hook
08253f74 g     O .rwdata	00000002 OSTmrCfgMax
0823d360 g     F .text	00000040 sysuptime
0820e008 g     F .text	000000dc strcmp
08201330 g     F .text	000001a8 generate_and_store_mac_addr
08242600 g     F .text	000001b4 ip_reasm_delete_ire
08218da4 g     F .text	000001ac OSQCreate
0822d7c8 g     F .text	00000060 irq_Mask
0821b4dc g     F .text	00000198 OSTaskNameGet
082541d4 g     O .bss	00000004 nextppp
0825415c g     O .bss	00000004 irq_level
082260e4 g     F .text	00000158 fixup_subnet_mask
08219958 g     F .text	0000020c OSQPostOpt
082158d4 g     F .text	00000220 OSTimeTick
08240f1c g     F .text	00000134 ip_copypkt
0822c54c g     F .text	00000088 dhc_alldone
08253f5c g     O .rwdata	00000002 OSTaskMax
0824bf30 g       *ABS*	00000000 __DTOR_LIST__
08219e18 g     F .text	000000d8 OSSemCreate
08254104 g     O .bss	00000004 igmp_all_hosts_group
08253f80 g     O .rwdata	00000002 OSTmrWheelSize
082341f8 g     F .text	0000003c sbselqueue
0825410c g     O .bss	00000004 netmain_wakes
0823e5fc g     F .text	00000264 arprcv
0822951c g     F .text	00000074 TK_OSTaskResume
082278c8 g     F .text	0000041c igmp_print_stats
08212f58 g     F .text	00000088 .hidden __nedf2
0822e2b0 g     F .text	00000090 pffindtype
08253f56 g     O .rwdata	00000002 OSTaskDelEn
08253fe4 g     O .rwdata	00000004 tcp_sendspace
08249924 g     F .text	00000110 vftell
0825e168 g     O .bss	00000012 eth_prt_buf
0821a5b8 g     F .text	00000110 OSSemQuery
08218f50 g     F .text	00000280 OSQDel
08219514 g     F .text	0000016c OSQPendAbort
0821c45c g     F .text	00000038 alt_irq_init
08220270 g     F .text	00000040 alt_tse_mac_get_common_speed
0825e5d0 g     O .bss	00000018 app_semaphore
0823c7a8 g     F .text	00000064 alt_release_fd
0822dcc0 g     F .text	0000007c post_app_sem
08226d48 g     F .text	000000a4 igmp_init
08203774 g     F .text	0000006c sprintf
0824dd74 g     O .rodata	00000100 .hidden __clz_tab
08254148 g     O .bss	00000004 dsc_renew
082473c0 g     F .text	00000078 md_fwrite
08254058 g     O .bss	00000004 _PathLocale
08254170 g     O .bss	00000004 tcp_sleep_count
0822ecec g     F .text	0000007c insque
0824b688 g     F .text	00000014 atexit
0825423c g     O .bss	00000004 vfsfiles
08210b38 g     F .text	00000060 _write_r
0824bbe0 g     F .text	00000050 _vsprintf_r
08245008 g     F .text	00000298 udp_send
0821564c g     F .text	0000008c OSSchedLock
08227040 g     F .text	0000029c igmp_send
0820bb68 g     F .text	00000018 setlocale
08217104 g     F .text	00000108 OSFlagCreate
0825895c g     O .bss	00002000 LEDManagementTaskStk
0822d828 g     F .text	00000044 irq_Unmask
08230670 g     F .text	000000d8 t_listen
08253eec g     O .rwdata	00000004 _impure_ptr
08251f50 g     O .rwdata	00000018 ssstask
08254074 g     O .bss	00000004 alt_argc
0823a5b4 g     F .text	000006d4 tcp_usrreq
0823b178 g     F .text	0000023c udp_usrreq
0822e23c g     F .text	00000034 ncpalloc
0820a89c g     F .text	0000021c __sflush_r
0823bf4c g     F .text	00000060 _do_dtors
0820bb54 g     F .text	00000008 __locale_cjk_lang
08253f26 g     O .rwdata	00000002 OSEventMultiEn
08254018 g     O .rwdata	00000004 pingdelay
0823dc0c g     F .text	00000074 arp_send_pending
0825db80 g     O .bss	000000e0 tse_mac_if
08245568 g     F .text	000002a4 igmpv1_input
0820dc30 g     F .text	000001d4 __srefill_r
0822df38 g     F .text	0000004c pre_task_setup
08254190 g     O .bss	00000004 rcvdq_sem_ptr
08227f2c g     F .text	00000124 bsd_getsockname
082427b4 g     F .text	00000130 ip_reasm_mark_compact_rfq
082017ac g     F .text	0000012c FindLastFlashSectorOffset
0821720c g     F .text	00000248 OSFlagDel
082540c4 g     O .bss	00000004 OSEventFreeList
08229bd8 g     F .text	00000048 dhc_set_callback
08200060 g       .exceptions	00000000 alt_irq_entry
082541e4 g     O .bss	00000004 arpcache
0824b020 g     F .text	00000300 icmp_destun
08243c04 g     F .text	00000064 lookup_mcast
08249c98 g     F .text	00000048 vfslookup
082435d8 g     F .text	000003d4 ip_demux
0820d1d8 g     F .text	00000064 __ulp
08254174 g     O .bss	00000004 tcp_wakeup_count
082176c8 g     F .text	000005b8 OSFlagPend
08253f72 g     O .rwdata	00000002 OSTmrEn
0820aecc g     F .text	00000018 __fp_unlock_all
0822dc04 g     F .text	000000bc wait_app_sem
0821e2f8 g     F .text	00000060 altera_avalon_lcd_16207_write_fd
0820af28 g     F .text	0000005c fputc
08253fa4 g     O .rwdata	00000004 ipmcfail_str
08254188 g     O .bss	00000004 memtrapsize
0822e6d8 g     F .text	000002f4 m_copy
08253fec g     O .rwdata	00000008 alt_fs_list
0825e64c g     O .bss	00000014 mfreeq
082166c4 g     F .text	00000074 OS_StrCopy
08231c38 g     F .text	0000005c sobind
082471c0 g     F .text	00000058 init_memdev
0825403c g     O .bss	00000001 to_ssstask
0822ed68 g     F .text	000000f8 nptcp_init
08253f3c g     O .rwdata	00000002 OSMemNameSize
0825e4a0 g     O .bss	000000f0 global_TCPwakeup_set
0823d010 g     F .text	00000020 OSInitHookEnd
08233cd0 g     F .text	000000c4 soisdisconnected
0823db84 g     F .text	00000088 arp_free_pending
08253f68 g     O .rwdata	00000002 OSTCBPrioTblMax
0820bb80 g     F .text	0000000c localeconv
08231e74 g     F .text	000002bc soclose
0825e390 g     O .bss	00000014 bigfreeq
08253f64 g     O .rwdata	00000002 OSTaskStatStkChkEn
08254014 g     O .rwdata	00000004 prompt
08253fdc g     O .rwdata	00000004 tcp_keepidle
08223480 g     F .text	000001a8 alt_tse_phy_set_adv_10
0822fb28 g     F .text	000001c8 rawip_soinput
0823c03c g     F .text	00000050 alt_ic_isr_register
08249778 g     F .text	00000060 vfwrite
08253f38 g     O .rwdata	00000002 OSMemEn
08233f94 g     F .text	000000ac soqinsque
08254218 g     O .bss	00000004 so_evtmap_delete
08202e40 g     F .text	00000034 fwrite
08253f42 g     O .rwdata	00000002 OSMutexEn
08254204 g     O .bss	00000004 h_ireq
0825403c g       *ABS*	00000000 _edata
08240434 g     F .text	000005c4 ip_fragment
082258dc g     F .text	00000148 iniche_devices_init
0825e660 g     O .bss	00000028 tcp_saveti
08229070 g     F .text	000000d8 con_page
0825eaec g       *ABS*	00000000 _end
082335d0 g     F .text	000004a8 sogetopt
0821442c g     F .text	00000068 alt_flash_open_dev
082540c8 g     O .bss	00000001 OSIntNesting
0822232c g     F .text	00000248 alt_tse_mac_associate_phy
08253b1c g     O .rwdata	00000030 nettasks
0822ce44 g     F .text	00000020 pk_get_max_intrsafe_buf_len
08210db4 g     F .text	00000164 __fputwc
08240d44 g     F .text	000001d8 iproute
0822f618 g     F .text	000000f4 np_stripoptions
0825421c g     O .bss	00000001 so_evtmap
0821cd88 g     F .text	000000f0 altera_avalon_jtag_uart_ioctl
0820af84 g     F .text	0000009c _fputs_r
0821c198 g     F .text	000001d4 OSTimeDlyResume
0820197c g     F .text	000000d0 SSSCreateTasks
0824438c g     F .text	000003c0 add_route
0821757c g     F .text	0000014c OSFlagNameSet
082266c4 g     F .text	00000090 c_older
08234984 g     F .text	00000084 sbflush
08247240 g     F .text	00000024 md_fclose
08229868 g     F .text	00000030 tk_yield
08201d80 g     F .text	000000c8 sss_handle_accept
0821b9fc g     F .text	000001c0 OSTaskStkChk
0823c114 g     F .text	0000008c alt_ic_irq_disable
08232368 g     F .text	00000558 sosend
08253f3e g     O .rwdata	00000002 OSMemSize
082409f8 g     F .text	000000a4 ip_mymach
0821ea64 g     F .text	0000008c alt_avalon_sgdma_construct_descriptor
0820df28 g     F .text	0000007c __swrite
08254158 g     O .bss	00000004 cticks_initialized
0825401c g     O .rwdata	00000004 deflength
082313d8 g     F .text	000001f4 t_sendto
08253ef8 g     O .rwdata	00000004 __malloc_trim_threshold
08203338 g     F .text	00000080 _perror_r
0823ccec g     F .text	00000024 altera_nios2_qsys_irq_init
0820bb48 g     F .text	0000000c __locale_msgcharset
082540cc g     O .bss	00000004 OSTCBCur
08231a90 g     F .text	000001a8 socreate
0824b6b4 g     F .text	00000038 exit
0825e8f8 g     O .bss	00000100 arp_table
08254254 g     O .bss	00000004 icmpdu_hook
08253f40 g     O .rwdata	00000002 OSMemTblSize
0820b9ec g     F .text	000000c4 _fwalk_reent
0823d87c g     F .text	00000024 create_apptasks
08253fd8 g     O .rwdata	00000004 tcp_ttl
0820cfdc g     F .text	000001fc __mdiff
08214494 g     F .text	00000054 alt_flash_close_dev
0822e270 g     F .text	00000040 ncpfree
08202bf8 g     F .text	00000074 .hidden __modsi3
082540e8 g     O .bss	00000004 MaxLnh
08253ee4 g     O .rwdata	00000004 __ctype_ptr__
0821f4d8 g     F .text	00000050 tse_mac_setGMIImode
082479b0 g     F .text	00000084 inet_ntop
08245500 g     F .text	00000024 udp_maxalloc
08223ea0 g     F .text	000000e4 marvell_cfg_gmii
08380000 g       *ABS*	00000000 __alt_data_end
08200060 g     F .exceptions	00000000 alt_exception
0820aea8 g     F .text	00000004 __sfp_lock_release
082154b0 g     F .text	00000058 OSInit
08222574 g     F .text	00000128 alt_tse_phy_cfg_pcs
0821bda0 g     F .text	00000124 OSTaskQuery
0823d168 g     F .text	00000094 icmp_port_du
082541b8 g     O .bss	00000004 tcp_iss
08219cc0 g     F .text	000000a8 OS_QInit
0824b69c g     F .text	0000000c atoi
08253fc8 g     O .rwdata	00000004 bigbufsiz
08216738 g     F .text	00000054 OS_StrLen
08239d78 g     F .text	00000078 tcp_putseq
082188c4 g     F .text	00000114 OSMemNameSet
0824d1e2 g     O .rodata	00000101 _ctype_
08200000 g       *ABS*	00000000 __alt_mem_onchip_ram
082345c8 g     F .text	000001dc sbappendaddr
00000000 g       *ABS*	00000000 __alt_mem_ext_flash
0825424c g     O .bss	00000004 vfs_total_rw_space
082465d0 g     F .text	00000108 ip_getmoptions
08253f5a g     O .rwdata	00000002 OSTaskProfileEn
082452a0 g     F .text	000000f4 udpswap
082540d0 g     O .bss	00000004 OSTime
08254194 g     O .bss	00000004 nextslow
08239e64 g     F .text	00000270 tcp_slowtimo
08239a84 g     F .text	0000010c tcp_newtcpcb
0823e860 g     F .text	00000180 send_via_arp
08229b28 g     F .text	000000b0 dhc_init
08242184 g     F .text	00000058 ip_reasm_find_ire
0825c2dc g     O .bss	00000800 OSTaskIdleStk
0824befc g     F .text	00000034 _exit
08249eac g     F .text	00000058 isvfile_locked
08228508 g     F .text	00000184 bsd_select
0823bb30 g     F .text	0000012c alt_alarm_start
08217454 g     F .text	00000128 OSFlagNameGet
08245524 g     F .text	00000044 udp_free
0822cf20 g     F .text	000000b8 getq
0824a000 g     F .text	00000024 prep_vfs
0821c36c g     F .text	0000005c OSTimeGet
08254010 g     O .rwdata	00000004 name
08234bc0 g     F .text	00000100 sbdropend
0820bb8c g     F .text	000001bc __smakebuf_r
0823e9e0 g     F .text	0000010c cb_arpent_tmo
08203fbc g     F .text	00000098 strlen
08245ed4 g     F .text	00000134 IPADDR_TO_NETP
0822838c g     F .text	00000034 bsd_inet_ntoa
0823cf84 g     F .text	00000020 OSTaskSwHook
0823c51c g     F .text	00000154 open
0822d188 g     F .text	000001fc udp_open
0825cadc g     O .bss	00000b40 OSEventTbl
08234148 g     F .text	00000058 socantsendmore
08254250 g     O .bss	00000004 vfs_total_dyna_files
08212fe0 g     F .text	000000dc .hidden __gedf2
0823c9e4 g     F .text	00000044 alt_uncached_free
0825d61c g     O .bss	00000510 OSTCBTbl
082541f0 g     O .bss	00000004 arpReqsOut
0821a6c8 g     F .text	00000100 OSSemSet
08254038 g     O .rwdata	00000004 http_root_path
0822bafc g     F .text	00000270 dhc_extract_opts
082416f0 g     F .text	00000564 ip_reasm_compute_overlap
08253efc g     O .rwdata	00000004 __wctomb
0820f5ec g     F .text	00000018 __sprint_r
0821f354 g     F .text	000000a8 tse_mac_aRxRead
082037e0 g     F .text	00000164 strchr
0825e17a g     O .bss	00000012 ipreturn
0825420c g     O .bss	00000004 port_prep
08253b9f g     O .rwdata	0000000d tcp_backoff
08233ac4 g     F .text	00000070 soisconnecting
08200ca8 g     F .text	00000070 SSSInitialTask
0820b020 g     F .text	00000018 fputs
08254004 g     O .rwdata	00000004 alt_priority_mask
08245a64 g     F .text	000001ec igmpv2_process_query
08234d50 g     F .text	000001d0 t_select
08219ef0 g     F .text	00000240 OSSemDel
0823ba08 g     F .text	00000128 udp4_sockaddr
082540d4 g     O .bss	00000004 OSFlagFreeList
08248184 g     F .text	000001e0 in_pcbconnect
082541ac g     O .bss	00000004 dropline
08254208 g     O .bss	00000004 ire_cticks
0823c08c g     F .text	00000088 alt_ic_irq_enable
08253f20 g     O .rwdata	00000002 OSEventNameSize
08208c90 g     F .text	0000001c __vfprintf_internal
0822942c g     F .text	00000078 tk_netmain
08248364 g     F .text	0000005c in_pcbdisconnect
082540d8 g     O .bss	00000001 OSStatRdy
0825db2c g     O .bss	00000054 OSTCBPrioTbl
082112b8 g     F .text	0000005c _wctomb_r
08214930 g     F .text	000000c4 __env_lock
08253f66 g     O .rwdata	00000002 OSTaskSwHookEn
08253d78 g     O .rwdata	00000024 mdio
08220530 g     F .text	000000e0 alt_tse_mac_set_speed
0821e63c g     F .text	00000084 alt_avalon_sgdma_construct_mem_to_mem_desc_burst
08227ce4 g     F .text	00000124 bsd_accept
08253fe8 g     O .rwdata	00000004 tcp_recvspace
082138c8 g     F .text	000008fc .hidden __subdf3
0824bee4 g     F .text	00000018 _vfprintf_r
0823af3c g     F .text	00000040 tcpinit
08254108 g     O .bss	00000004 igmp_all_rtrs_group
0822facc g     F .text	0000005c rawip_lookup
0823d91c g     F .text	000000a0 fcntl
0820ca10 g     F .text	000000b0 __lo0bits
082347a4 g     F .text	000001e0 sbcompress
08254008 g     O .rwdata	00000008 alt_alarm_list
08239b90 g     F .text	000000ac tcp_drop
08253f2e g     O .rwdata	00000002 OSFlagWidth
0823beec g     F .text	00000060 _do_ctors
0822322c g     F .text	00000254 alt_tse_phy_set_adv_100
0823a134 g     F .text	00000480 tcp_timers
08226cc4 g     F .text	00000084 if_netnumber
082466d8 g     F .text	00000088 ip_freemoptions
08233a78 g     F .text	0000004c sohasoutofband
082111c8 g     F .text	000000c0 wcrtomb
082359dc g     F .text	00002330 tcp_input
08227e08 g     F .text	00000124 bsd_getpeername
082283c0 g     F .text	00000148 bsd_recvfrom
08225894 g     F .text	00000048 close
08254138 g     O .bss	00000004 dsc_bpreplys
08254084 g     O .bss	00000004 alt_envsem
082540dc g     O .bss	00000004 OSIdleCtrRun
08215af4 g     F .text	00000020 OSVersion
08253f78 g     O .rwdata	00000002 OSTmrCfgWheelSize
0821bec4 g     F .text	00000070 OS_TaskStkClr
0824871c g     F .text	0000002c set_vfopen_error
08253f52 g     O .rwdata	00000002 OSTaskCreateEn
082202f8 g     F .text	0000006c alt_tse_get_system_index
08253b7c g     O .rwdata	00000018 rawip_protosw
08234234 g     F .text	0000006c sbwait
082160e4 g     F .text	00000068 OS_EventWaitListInit
0822bd6c g     F .text	00000550 dhc_second
0821f044 g     F .text	000000a8 alt_avalon_sgdma_init
082541d8 g     O .bss	00000004 port_1s_callout
08210f3c g     F .text	00000080 fputwc
0823d030 g     F .text	00000020 OSTaskIdleHook
0824b700 g     F .text	00000014 free
0820aeac g     F .text	00000004 __sinit_lock_acquire
082540e4 g     O .bss	00000001 number_of_tse_mac
0820c784 g     F .text	00000120 __multadd
0821bbbc g     F .text	000001e4 OSTaskSuspend
0820c75c g     F .text	00000028 _Bfree
0821f1e0 g     F .text	00000030 no_printf
08233d94 g     F .text	00000200 sonewconn
0824a4bc g     F .text	00000b64 icmprcv
0822e340 g     F .text	000000c4 pffindproto
0821678c g     F .text	0000005c OS_TaskIdle
08253f7e g     O .rwdata	00000002 OSTmrTblSize
08219b64 g     F .text	0000015c OSQQuery



Disassembly of section .exceptions:

08200060 <alt_exception>:

#else /* ALT_EXCEPTION_STACK disabled */
        /* 
         * Reserve space on normal stack for registers about to be pushed.
         */
        addi  sp, sp, -76
 8200060:	deffed04 	addi	sp,sp,-76
         * documentation for details).
         *
         * Leave a gap in the stack frame at 4(sp) for the muldiv handler to
         * store zero into.
         */
        stw   ra,  0(sp)
 8200064:	dfc00015 	stw	ra,0(sp)
        stw   r1,   8(sp)
 8200068:	d8400215 	stw	at,8(sp)
        stw   r2,  12(sp)
 820006c:	d8800315 	stw	r2,12(sp)
        stw   r3,  16(sp)
 8200070:	d8c00415 	stw	r3,16(sp)
        stw   r4,  20(sp)
 8200074:	d9000515 	stw	r4,20(sp)
        stw   r5,  24(sp)
 8200078:	d9400615 	stw	r5,24(sp)
        stw   r6,  28(sp)
 820007c:	d9800715 	stw	r6,28(sp)
        stw   r7,  32(sp)
 8200080:	d9c00815 	stw	r7,32(sp)
        rdctl r5, estatus   /* Read early to avoid usage stall */
 8200084:	000b307a 	rdctl	r5,estatus
        stw   r8,  36(sp)
 8200088:	da000915 	stw	r8,36(sp)
        stw   r9,  40(sp)
 820008c:	da400a15 	stw	r9,40(sp)
        stw   r10, 44(sp)
 8200090:	da800b15 	stw	r10,44(sp)
        stw   r11, 48(sp)
 8200094:	dac00c15 	stw	r11,48(sp)
        stw   r12, 52(sp)
 8200098:	db000d15 	stw	r12,52(sp)
        stw   r13, 56(sp)
 820009c:	db400e15 	stw	r13,56(sp)
        stw   r14, 60(sp)
 82000a0:	db800f15 	stw	r14,60(sp)
        stw   r15, 64(sp)
 82000a4:	dbc01015 	stw	r15,64(sp)
        /*
         * ea-4 contains the address of the instruction being executed
         * when the exception occured. For interrupt exceptions, we will
         * will be re-issue the isntruction. Store it in 72(sp)
         */
        stw   r5,  68(sp)  /* estatus */
 82000a8:	d9401115 	stw	r5,68(sp)
        addi  r15, ea, -4  /* instruction that caused exception */
 82000ac:	ebffff04 	addi	r15,ea,-4
        stw   r15,  72(sp)
 82000b0:	dbc01215 	stw	r15,72(sp)
#else
        /*
         * Test to see if the exception was a software exception or caused 
         * by an external interrupt, and vector accordingly.
         */
        rdctl r4, ipending
 82000b4:	0009313a 	rdctl	r4,ipending
        andi  r2, r5, 1
 82000b8:	2880004c 	andi	r2,r5,1
        beq   r2, zero, .Lnot_irq
 82000bc:	10000326 	beq	r2,zero,82000cc <alt_exception+0x6c>
        beq   r4, zero, .Lnot_irq
 82000c0:	20000226 	beq	r4,zero,82000cc <alt_exception+0x6c>
        /*
         * Now that all necessary registers have been preserved, call 
         * alt_irq_handler() to process the interrupts.
         */

        call alt_irq_handler
 82000c4:	820012c0 	call	820012c <alt_irq_handler>

        .section .exceptions.irqreturn, "xa"

        br    .Lexception_exit
 82000c8:	00000306 	br	82000d8 <alt_exception_unknown+0x4>
         * upon completion, so we write ea (address of instruction *after*
         * the one where the exception occured) into 72(sp). The actual
         * instruction that caused the exception is written in r2, which these
         * handlers will utilize.
         */
        stw   ea,  72(sp)  /* Don't re-issue */
 82000cc:	df401215 	stw	ea,72(sp)
        ldw   r2, -4(ea)   /* Instruction that caused exception */
 82000d0:	e8bfff17 	ldw	r2,-4(ea)

082000d4 <alt_exception_unknown>:
#ifdef NIOS2_HAS_DEBUG_STUB
       /*
        *  Either tell the user now (if there is a debugger attached) or go into
        *  the debug monitor which will loop until a debugger is attached.
        */
        break
 82000d4:	003da03a 	break	0
        /* 
         * Restore the saved registers, so that all general purpose registers 
         * have been restored to their state at the time the interrupt occured.
         */

        ldw   r5,  68(sp)
 82000d8:	d9401117 	ldw	r5,68(sp)
        ldw   ea,  72(sp)  /* This becomes the PC once eret is executed */
 82000dc:	df401217 	ldw	ea,72(sp)
        ldw   ra,   0(sp)
 82000e0:	dfc00017 	ldw	ra,0(sp)

        wrctl estatus, r5
 82000e4:	2801707a 	wrctl	estatus,r5

        ldw   r1,   8(sp)
 82000e8:	d8400217 	ldw	at,8(sp)
        ldw   r2,  12(sp)
 82000ec:	d8800317 	ldw	r2,12(sp)
        ldw   r3,  16(sp)
 82000f0:	d8c00417 	ldw	r3,16(sp)
        ldw   r4,  20(sp)
 82000f4:	d9000517 	ldw	r4,20(sp)
        ldw   r5,  24(sp)
 82000f8:	d9400617 	ldw	r5,24(sp)
        ldw   r6,  28(sp)
 82000fc:	d9800717 	ldw	r6,28(sp)
        ldw   r7,  32(sp)
 8200100:	d9c00817 	ldw	r7,32(sp)

#if defined(ALT_EXCEPTION_STACK) && defined(ALT_STACK_CHECK)
        ldw   et, %gprel(alt_exception_old_stack_limit)(gp)
#endif

        ldw   r8,  36(sp)
 8200104:	da000917 	ldw	r8,36(sp)
        ldw   r9,  40(sp)
 8200108:	da400a17 	ldw	r9,40(sp)
        ldw   r10, 44(sp)
 820010c:	da800b17 	ldw	r10,44(sp)
        ldw   r11, 48(sp)
 8200110:	dac00c17 	ldw	r11,48(sp)
        ldw   r12, 52(sp)
 8200114:	db000d17 	ldw	r12,52(sp)
        ldw   r13, 56(sp)
 8200118:	db400e17 	ldw	r13,56(sp)
        ldw   r14, 60(sp)
 820011c:	db800f17 	ldw	r14,60(sp)
        ldw   r15, 64(sp)
 8200120:	dbc01017 	ldw	r15,64(sp)
        stw   et, %gprel(alt_stack_limit_value)(gp)
        stw   zero, %gprel(alt_exception_old_stack_limit)(gp)
#endif /* ALT_STACK_CHECK */
        ldw   sp,  76(sp)
#else /* ALT_EXCEPTION_STACK disabled */
        addi  sp, sp, 76
 8200124:	dec01304 	addi	sp,sp,76

        /*
         * Return to the interrupted instruction.
         */

        eret
 8200128:	ef80083a 	eret

0820012c <alt_irq_handler>:
 * instruction is present if the macro ALT_CI_INTERRUPT_VECTOR defined.
 */

void alt_irq_handler (void) __attribute__ ((section (".exceptions")));
void alt_irq_handler (void)
{
 820012c:	defff904 	addi	sp,sp,-28
 8200130:	dfc00615 	stw	ra,24(sp)
 8200134:	df000515 	stw	fp,20(sp)
 8200138:	df000504 	addi	fp,sp,20
  
  /*
   * Notify the operating system that we are at interrupt level.
   */ 
  
  ALT_OS_INT_ENTER();
 820013c:	82155080 	call	8215508 <OSIntEnter>
#ifndef NIOS2_EIC_PRESENT
static ALT_INLINE alt_u32 ALT_ALWAYS_INLINE alt_irq_pending (void)
{
  alt_u32 active;

  NIOS2_READ_IPENDING (active);
 8200140:	0005313a 	rdctl	r2,ipending
 8200144:	e0bffe15 	stw	r2,-8(fp)

  return active;
 8200148:	e0bffe17 	ldw	r2,-8(fp)
   * Consider the case where the high priority interupt is asserted during
   * the interrupt entry sequence for a lower priority interrupt to see why
   * this is the case.
   */

  active = alt_irq_pending ();
 820014c:	e0bffb15 	stw	r2,-20(fp)

  do
  {
    i = 0;
 8200150:	e03ffd15 	stw	zero,-12(fp)
    mask = 1;
 8200154:	00800044 	movi	r2,1
 8200158:	e0bffc15 	stw	r2,-16(fp)
     * called to clear the interrupt condition.
     */

    do
    {
      if (active & mask)
 820015c:	e0fffb17 	ldw	r3,-20(fp)
 8200160:	e0bffc17 	ldw	r2,-16(fp)
 8200164:	1884703a 	and	r2,r3,r2
 8200168:	10001426 	beq	r2,zero,82001bc <alt_irq_handler+0x90>
      { 
#ifdef ALT_ENHANCED_INTERRUPT_API_PRESENT
        alt_irq[i].handler(alt_irq[i].context); 
 820016c:	008209b4 	movhi	r2,2086
 8200170:	10b9e504 	addi	r2,r2,-6252
 8200174:	e0fffd17 	ldw	r3,-12(fp)
 8200178:	180690fa 	slli	r3,r3,3
 820017c:	10c5883a 	add	r2,r2,r3
 8200180:	10c00017 	ldw	r3,0(r2)
 8200184:	008209b4 	movhi	r2,2086
 8200188:	10b9e504 	addi	r2,r2,-6252
 820018c:	e13ffd17 	ldw	r4,-12(fp)
 8200190:	200890fa 	slli	r4,r4,3
 8200194:	1105883a 	add	r2,r2,r4
 8200198:	10800104 	addi	r2,r2,4
 820019c:	10800017 	ldw	r2,0(r2)
 82001a0:	1009883a 	mov	r4,r2
 82001a4:	183ee83a 	callr	r3
#else
        alt_irq[i].handler(alt_irq[i].context, i); 
#endif
        break;
 82001a8:	0001883a 	nop
#ifndef NIOS2_EIC_PRESENT
static ALT_INLINE alt_u32 ALT_ALWAYS_INLINE alt_irq_pending (void)
{
  alt_u32 active;

  NIOS2_READ_IPENDING (active);
 82001ac:	0005313a 	rdctl	r2,ipending
 82001b0:	e0bfff15 	stw	r2,-4(fp)

  return active;
 82001b4:	e0bfff17 	ldw	r2,-4(fp)
 82001b8:	00000706 	br	82001d8 <alt_irq_handler+0xac>
      }
      mask <<= 1;
 82001bc:	e0bffc17 	ldw	r2,-16(fp)
 82001c0:	1085883a 	add	r2,r2,r2
 82001c4:	e0bffc15 	stw	r2,-16(fp)
      i++;
 82001c8:	e0bffd17 	ldw	r2,-12(fp)
 82001cc:	10800044 	addi	r2,r2,1
 82001d0:	e0bffd15 	stw	r2,-12(fp)

    } while (1);
 82001d4:	003fe106 	br	820015c <alt_irq_handler+0x30>

    active = alt_irq_pending ();
 82001d8:	e0bffb15 	stw	r2,-20(fp)
    
  } while (active);
 82001dc:	e0bffb17 	ldw	r2,-20(fp)
 82001e0:	103fdb1e 	bne	r2,zero,8200150 <alt_irq_handler+0x24>

  /*
   * Notify the operating system that interrupt processing is complete.
   */ 

  ALT_OS_INT_EXIT();
 82001e4:	82155540 	call	8215554 <OSIntExit>
}
 82001e8:	0001883a 	nop
 82001ec:	e037883a 	mov	sp,fp
 82001f0:	dfc00117 	ldw	ra,4(sp)
 82001f4:	df000017 	ldw	fp,0(sp)
 82001f8:	dec00204 	addi	sp,sp,8
 82001fc:	f800283a 	ret

Disassembly of section .text:

08200200 <_start>:

    /* Assume the data cache size is always a power of two. */
#if NIOS2_DCACHE_SIZE > 0x8000
    movhi r2, %hi(NIOS2_DCACHE_SIZE)
#else
    movui r2, NIOS2_DCACHE_SIZE
 8200200:	00a00014 	movui	r2,32768
#endif

0:
    initd 0(r2)
 8200204:	10000033 	initd	0(r2)
#ifdef NIOS2_ECC_PRESENT
    addi r2, r2, -4
#else
    addi r2, r2, -NIOS2_DCACHE_LINE_SIZE
 8200208:	10bff804 	addi	r2,r2,-32
#endif
    bgt r2, zero, 0b
 820020c:	00bffd16 	blt	zero,r2,8200204 <_start+0x4>

    /*
     * Now that the caches are initialized, set up the stack pointer and global pointer.
     * The values provided by the linker are assumed to be correctly aligned.
     */
    movhi sp, %hi(__alt_stack_pointer)
 8200210:	06c20e34 	movhi	sp,2104
    ori sp, sp, %lo(__alt_stack_pointer)
 8200214:	dec00014 	ori	sp,sp,0
    movhi gp, %hi(_gp)
 8200218:	06820974 	movhi	gp,2085
    ori gp, gp, %lo(_gp)
 820021c:	d6afb914 	ori	gp,gp,48868
 */
#ifndef ALT_SIM_OPTIMIZE
    /* Log that the BSS is about to be cleared. */
    ALT_LOG_PUTS(alt_log_msg_bss)

    movhi r2, %hi(__bss_start)
 8200220:	00820974 	movhi	r2,2085
    ori r2, r2, %lo(__bss_start)
 8200224:	10900f14 	ori	r2,r2,16444

    movhi r3, %hi(__bss_end)
 8200228:	00c20974 	movhi	r3,2085
    ori r3, r3, %lo(__bss_end)
 820022c:	18fabb14 	ori	r3,r3,60140

    beq r2, r3, 1f
 8200230:	10c00326 	beq	r2,r3,8200240 <_start+0x40>

0:
    stw zero, (r2)
 8200234:	10000015 	stw	zero,0(r2)
    addi r2, r2, 4
 8200238:	10800104 	addi	r2,r2,4
    bltu r2, r3, 0b
 820023c:	10fffd36 	bltu	r2,r3,8200234 <_start+0x34>

    /* Log that alt_main is about to be called. */
    ALT_LOG_PUTS(alt_log_msg_alt_main)

    /* Call the C entry point. It should never return. */
    call alt_main
 8200240:	82147c40 	call	82147c4 <alt_main>

08200244 <alt_after_alt_main>:

    /* Wait in infinite loop in case alt_main does return. */
alt_after_alt_main:
    br alt_after_alt_main
 8200244:	003fff06 	br	8200244 <alt_after_alt_main>

08200248 <alt_uCOSIIErrorHandler>:
#include <errno.h>
#include "includes.h"
#include "alt_error_handler.h"
 
void alt_uCOSIIErrorHandler(INT8U error_code, void *expanded_diagnosis_ptr)
{
 8200248:	defffb04 	addi	sp,sp,-20
 820024c:	dfc00415 	stw	ra,16(sp)
 8200250:	df000315 	stw	fp,12(sp)
 8200254:	df000304 	addi	fp,sp,12
 8200258:	2005883a 	mov	r2,r4
 820025c:	e17fff15 	stw	r5,-4(fp)
 8200260:	e0bffe05 	stb	r2,-8(fp)
   FAULT_LEVEL fault_level;
   
   if(error_code == OS_NO_ERR)
 8200264:	e0bffe03 	ldbu	r2,-8(fp)
 8200268:	10014a26 	beq	r2,zero,8200794 <alt_uCOSIIErrorHandler+0x54c>
   {
      return;
   }
   
   fault_level = SYSTEM;  
 820026c:	00800084 	movi	r2,2
 8200270:	e0bffd15 	stw	r2,-12(fp)
   OSSchedLock();  /* Disable Task Switching but still service other IRQs */
 8200274:	821564c0 	call	821564c <OSSchedLock>
      
   switch (error_code)
 8200278:	e0bffe03 	ldbu	r2,-8(fp)
 820027c:	10c00a20 	cmpeqi	r3,r2,40
 8200280:	1800261e 	bne	r3,zero,820031c <alt_uCOSIIErrorHandler+0xd4>
 8200284:	10c00a48 	cmpgei	r3,r2,41
 8200288:	1800121e 	bne	r3,zero,82002d4 <alt_uCOSIIErrorHandler+0x8c>
 820028c:	10c00120 	cmpeqi	r3,r2,4
 8200290:	1800601e 	bne	r3,zero,8200414 <alt_uCOSIIErrorHandler+0x1cc>
 8200294:	10c00148 	cmpgei	r3,r2,5
 8200298:	1800071e 	bne	r3,zero,82002b8 <alt_uCOSIIErrorHandler+0x70>
 820029c:	10c000a0 	cmpeqi	r3,r2,2
 82002a0:	18007a1e 	bne	r3,zero,820048c <alt_uCOSIIErrorHandler+0x244>
 82002a4:	10c000c8 	cmpgei	r3,r2,3
 82002a8:	1800631e 	bne	r3,zero,8200438 <alt_uCOSIIErrorHandler+0x1f0>
 82002ac:	10800060 	cmpeqi	r2,r2,1
 82002b0:	10004d1e 	bne	r2,zero,82003e8 <alt_uCOSIIErrorHandler+0x1a0>
 82002b4:	0000bc06 	br	82005a8 <alt_uCOSIIErrorHandler+0x360>
 82002b8:	10c00520 	cmpeqi	r3,r2,20
 82002bc:	1800401e 	bne	r3,zero,82003c0 <alt_uCOSIIErrorHandler+0x178>
 82002c0:	10c007a0 	cmpeqi	r3,r2,30
 82002c4:	1800961e 	bne	r3,zero,8200520 <alt_uCOSIIErrorHandler+0x2d8>
 82002c8:	108002a0 	cmpeqi	r2,r2,10
 82002cc:	1000651e 	bne	r2,zero,8200464 <alt_uCOSIIErrorHandler+0x21c>
 82002d0:	0000b506 	br	82005a8 <alt_uCOSIIErrorHandler+0x360>
 82002d4:	10c01020 	cmpeqi	r3,r2,64
 82002d8:	1800881e 	bne	r3,zero,82004fc <alt_uCOSIIErrorHandler+0x2b4>
 82002dc:	10c01048 	cmpgei	r3,r2,65
 82002e0:	1800071e 	bne	r3,zero,8200300 <alt_uCOSIIErrorHandler+0xb8>
 82002e4:	10c00f60 	cmpeqi	r3,r2,61
 82002e8:	18007a1e 	bne	r3,zero,82004d4 <alt_uCOSIIErrorHandler+0x28c>
 82002ec:	10c00fa0 	cmpeqi	r3,r2,62
 82002f0:	18006f1e 	bne	r3,zero,82004b0 <alt_uCOSIIErrorHandler+0x268>
 82002f4:	10800aa0 	cmpeqi	r2,r2,42
 82002f8:	1000111e 	bne	r2,zero,8200340 <alt_uCOSIIErrorHandler+0xf8>
 82002fc:	0000aa06 	br	82005a8 <alt_uCOSIIErrorHandler+0x360>
 8200300:	10c01920 	cmpeqi	r3,r2,100
 8200304:	1800901e 	bne	r3,zero,8200548 <alt_uCOSIIErrorHandler+0x300>
 8200308:	10c03fe0 	cmpeqi	r3,r2,255
 820030c:	1800991e 	bne	r3,zero,8200574 <alt_uCOSIIErrorHandler+0x32c>
 8200310:	108010a0 	cmpeqi	r2,r2,66
 8200314:	10001a1e 	bne	r2,zero,8200380 <alt_uCOSIIErrorHandler+0x138>
 8200318:	0000a306 	br	82005a8 <alt_uCOSIIErrorHandler+0x360>
   {  
      case OS_PRIO_EXIST:
         fprintf(stderr, "Attempted to assign task priority aready in use.\n");
 820031c:	d0a00217 	ldw	r2,-32760(gp)
 8200320:	10800317 	ldw	r2,12(r2)
 8200324:	100f883a 	mov	r7,r2
 8200328:	01800c44 	movi	r6,49
 820032c:	01400044 	movi	r5,1
 8200330:	01020974 	movhi	r4,2085
 8200334:	212fcc04 	addi	r4,r4,-16592
 8200338:	8202e400 	call	8202e40 <fwrite>
         break;
 820033c:	0000b106 	br	8200604 <alt_uCOSIIErrorHandler+0x3bc>
      case OS_PRIO_INVALID:
         fprintf(stderr, "Specified task priority higher than allowed max.\n");
 8200340:	d0a00217 	ldw	r2,-32760(gp)
 8200344:	10800317 	ldw	r2,12(r2)
 8200348:	100f883a 	mov	r7,r2
 820034c:	01800c44 	movi	r6,49
 8200350:	01400044 	movi	r5,1
 8200354:	01020974 	movhi	r4,2085
 8200358:	212fd904 	addi	r4,r4,-16540
 820035c:	8202e400 	call	8202e40 <fwrite>
         fprintf(stderr, "Task can't be assigned a priority higher than %d\n",
 8200360:	d0a00217 	ldw	r2,-32760(gp)
 8200364:	10800317 	ldw	r2,12(r2)
 8200368:	01800504 	movi	r6,20
 820036c:	01420974 	movhi	r5,2085
 8200370:	296fe604 	addi	r5,r5,-16488
 8200374:	1009883a 	mov	r4,r2
 8200378:	8202d500 	call	8202d50 <fprintf>
            OS_LOWEST_PRIO);
         break;
 820037c:	0000a106 	br	8200604 <alt_uCOSIIErrorHandler+0x3bc>
      case OS_NO_MORE_TCB:
         fprintf(stderr, "Task Control Blocks have been exhausted\n");
 8200380:	d0a00217 	ldw	r2,-32760(gp)
 8200384:	10800317 	ldw	r2,12(r2)
 8200388:	100f883a 	mov	r7,r2
 820038c:	01800a04 	movi	r6,40
 8200390:	01400044 	movi	r5,1
 8200394:	01020974 	movhi	r4,2085
 8200398:	212ff304 	addi	r4,r4,-16436
 820039c:	8202e400 	call	8202e40 <fwrite>
         fprintf(stderr, "Current max number of tasks is %d\n",OS_MAX_TASKS);
 82003a0:	d0a00217 	ldw	r2,-32760(gp)
 82003a4:	10800317 	ldw	r2,12(r2)
 82003a8:	01800284 	movi	r6,10
 82003ac:	01420974 	movhi	r5,2085
 82003b0:	296ffe04 	addi	r5,r5,-16392
 82003b4:	1009883a 	mov	r4,r2
 82003b8:	8202d500 	call	8202d50 <fprintf>
         break;
 82003bc:	00009106 	br	8200604 <alt_uCOSIIErrorHandler+0x3bc>
      case OS_MBOX_FULL:
         fault_level = NONE;
 82003c0:	e03ffd15 	stw	zero,-12(fp)
         fprintf(stderr, "Attempted Post to Mailbox already holding message\n");
 82003c4:	d0a00217 	ldw	r2,-32760(gp)
 82003c8:	10800317 	ldw	r2,12(r2)
 82003cc:	100f883a 	mov	r7,r2
 82003d0:	01800c84 	movi	r6,50
 82003d4:	01400044 	movi	r5,1
 82003d8:	01020974 	movhi	r4,2085
 82003dc:	21300704 	addi	r4,r4,-16356
 82003e0:	8202e400 	call	8202e40 <fwrite>
         break;
 82003e4:	00008706 	br	8200604 <alt_uCOSIIErrorHandler+0x3bc>
      case OS_ERR_EVENT_TYPE:
         fault_level = TASK;
 82003e8:	00800044 	movi	r2,1
 82003ec:	e0bffd15 	stw	r2,-12(fp)
         fprintf(stderr, 
 82003f0:	d0a00217 	ldw	r2,-32760(gp)
 82003f4:	10800317 	ldw	r2,12(r2)
 82003f8:	100f883a 	mov	r7,r2
 82003fc:	01801244 	movi	r6,73
 8200400:	01400044 	movi	r5,1
 8200404:	01020974 	movhi	r4,2085
 8200408:	21301404 	addi	r4,r4,-16304
 820040c:	8202e400 	call	8202e40 <fwrite>
"Attempted to access a resource with no match for the required data type.\n");
         break;
 8200410:	00007c06 	br	8200604 <alt_uCOSIIErrorHandler+0x3bc>
      case OS_ERR_PEVENT_NULL:
         fprintf(stderr, "Attempting to access a resource pointing to NULL\n");
 8200414:	d0a00217 	ldw	r2,-32760(gp)
 8200418:	10800317 	ldw	r2,12(r2)
 820041c:	100f883a 	mov	r7,r2
 8200420:	01800c44 	movi	r6,49
 8200424:	01400044 	movi	r5,1
 8200428:	01020974 	movhi	r4,2085
 820042c:	21302704 	addi	r4,r4,-16228
 8200430:	8202e400 	call	8202e40 <fwrite>
         break;
 8200434:	00007306 	br	8200604 <alt_uCOSIIErrorHandler+0x3bc>
      case OS_ERR_POST_NULL_PTR:
         fault_level = TASK;
 8200438:	00800044 	movi	r2,1
 820043c:	e0bffd15 	stw	r2,-12(fp)
         fprintf(stderr, "Attempted to Post a NULL to a resource. \n");
 8200440:	d0a00217 	ldw	r2,-32760(gp)
 8200444:	10800317 	ldw	r2,12(r2)
 8200448:	100f883a 	mov	r7,r2
 820044c:	01800a44 	movi	r6,41
 8200450:	01400044 	movi	r5,1
 8200454:	01020974 	movhi	r4,2085
 8200458:	21303404 	addi	r4,r4,-16176
 820045c:	8202e400 	call	8202e40 <fwrite>
         break;
 8200460:	00006806 	br	8200604 <alt_uCOSIIErrorHandler+0x3bc>
      case OS_TIMEOUT:
         fault_level = NONE;
 8200464:	e03ffd15 	stw	zero,-12(fp)
         fprintf(stderr, "Resource not received in specified time\n");
 8200468:	d0a00217 	ldw	r2,-32760(gp)
 820046c:	10800317 	ldw	r2,12(r2)
 8200470:	100f883a 	mov	r7,r2
 8200474:	01800a04 	movi	r6,40
 8200478:	01400044 	movi	r5,1
 820047c:	01020974 	movhi	r4,2085
 8200480:	21303f04 	addi	r4,r4,-16132
 8200484:	8202e400 	call	8202e40 <fwrite>
         break;
 8200488:	00005e06 	br	8200604 <alt_uCOSIIErrorHandler+0x3bc>
      case OS_ERR_PEND_ISR:
         fprintf(stderr, "Attempting to pend for a resource in an ISR\n");
 820048c:	d0a00217 	ldw	r2,-32760(gp)
 8200490:	10800317 	ldw	r2,12(r2)
 8200494:	100f883a 	mov	r7,r2
 8200498:	01800b04 	movi	r6,44
 820049c:	01400044 	movi	r5,1
 82004a0:	01020974 	movhi	r4,2085
 82004a4:	21304a04 	addi	r4,r4,-16088
 82004a8:	8202e400 	call	8202e40 <fwrite>
         break;
 82004ac:	00005506 	br	8200604 <alt_uCOSIIErrorHandler+0x3bc>
      case OS_TASK_DEL_IDLE:
         fprintf(stderr, "Attempted to delete the IDLE task\n");
 82004b0:	d0a00217 	ldw	r2,-32760(gp)
 82004b4:	10800317 	ldw	r2,12(r2)
 82004b8:	100f883a 	mov	r7,r2
 82004bc:	01800884 	movi	r6,34
 82004c0:	01400044 	movi	r5,1
 82004c4:	01020974 	movhi	r4,2085
 82004c8:	21305604 	addi	r4,r4,-16040
 82004cc:	8202e400 	call	8202e40 <fwrite>
         break;
 82004d0:	00004c06 	br	8200604 <alt_uCOSIIErrorHandler+0x3bc>
      case OS_TASK_DEL_ERR:
         fault_level = NONE;
 82004d4:	e03ffd15 	stw	zero,-12(fp)
         fprintf(stderr, "Attempted to delete a task that does not exist\n");
 82004d8:	d0a00217 	ldw	r2,-32760(gp)
 82004dc:	10800317 	ldw	r2,12(r2)
 82004e0:	100f883a 	mov	r7,r2
 82004e4:	01800bc4 	movi	r6,47
 82004e8:	01400044 	movi	r5,1
 82004ec:	01020974 	movhi	r4,2085
 82004f0:	21305f04 	addi	r4,r4,-16004
 82004f4:	8202e400 	call	8202e40 <fwrite>
         break;
 82004f8:	00004206 	br	8200604 <alt_uCOSIIErrorHandler+0x3bc>
      case OS_TASK_DEL_ISR:
         fprintf(stderr, "Attempted to delete a task from an ISR\n");
 82004fc:	d0a00217 	ldw	r2,-32760(gp)
 8200500:	10800317 	ldw	r2,12(r2)
 8200504:	100f883a 	mov	r7,r2
 8200508:	018009c4 	movi	r6,39
 820050c:	01400044 	movi	r5,1
 8200510:	01020974 	movhi	r4,2085
 8200514:	21306b04 	addi	r4,r4,-15956
 8200518:	8202e400 	call	8202e40 <fwrite>
         break;
 820051c:	00003906 	br	8200604 <alt_uCOSIIErrorHandler+0x3bc>
      case OS_Q_FULL:
         fault_level = NONE;
 8200520:	e03ffd15 	stw	zero,-12(fp)
         fprintf(stderr, "Attempted to post to a full message queue\n");
 8200524:	d0a00217 	ldw	r2,-32760(gp)
 8200528:	10800317 	ldw	r2,12(r2)
 820052c:	100f883a 	mov	r7,r2
 8200530:	01800a84 	movi	r6,42
 8200534:	01400044 	movi	r5,1
 8200538:	01020974 	movhi	r4,2085
 820053c:	21307504 	addi	r4,r4,-15916
 8200540:	8202e400 	call	8202e40 <fwrite>
         break;
 8200544:	00002f06 	br	8200604 <alt_uCOSIIErrorHandler+0x3bc>
      case OS_ERR_NOT_MUTEX_OWNER:
         fault_level = TASK;
 8200548:	00800044 	movi	r2,1
 820054c:	e0bffd15 	stw	r2,-12(fp)
         fprintf(stderr, "Attempted to post a mutex not owned by the task\n");
 8200550:	d0a00217 	ldw	r2,-32760(gp)
 8200554:	10800317 	ldw	r2,12(r2)
 8200558:	100f883a 	mov	r7,r2
 820055c:	01800c04 	movi	r6,48
 8200560:	01400044 	movi	r5,1
 8200564:	01020974 	movhi	r4,2085
 8200568:	21308004 	addi	r4,r4,-15872
 820056c:	8202e400 	call	8202e40 <fwrite>
         break;
 8200570:	00002406 	br	8200604 <alt_uCOSIIErrorHandler+0x3bc>
      case EXPANDED_DIAGNOSIS_CODE:      
         fault_level = SYSTEM;
 8200574:	00800084 	movi	r2,2
 8200578:	e0bffd15 	stw	r2,-12(fp)
         printf(
 820057c:	01020974 	movhi	r4,2085
 8200580:	21308d04 	addi	r4,r4,-15820
 8200584:	82033fc0 	call	82033fc <printf>
"\n[MicroC/OS-II]: See STDERR for expanded diagnosis translation.");    
         fprintf(stderr, "\n[MicroC/OS-II]: Expanded Diagnosis: %s.", 
 8200588:	d0a00217 	ldw	r2,-32760(gp)
 820058c:	10800317 	ldw	r2,12(r2)
 8200590:	e1bfff17 	ldw	r6,-4(fp)
 8200594:	01420974 	movhi	r5,2085
 8200598:	29709d04 	addi	r5,r5,-15756
 820059c:	1009883a 	mov	r4,r2
 82005a0:	8202d500 	call	8202d50 <fprintf>
                 (char *)expanded_diagnosis_ptr);
         break;           
 82005a4:	00001706 	br	8200604 <alt_uCOSIIErrorHandler+0x3bc>
      default:
         printf("\n[MicroC/OS-II]: (Not a MicroC/OS-II error) See STDERR.\n");    
 82005a8:	01020974 	movhi	r4,2085
 82005ac:	2130a804 	addi	r4,r4,-15712
 82005b0:	82036800 	call	8203680 <puts>
         fprintf(stderr, "\n[MicroC/OS-II]:");
 82005b4:	d0a00217 	ldw	r2,-32760(gp)
 82005b8:	10800317 	ldw	r2,12(r2)
 82005bc:	100f883a 	mov	r7,r2
 82005c0:	01800404 	movi	r6,16
 82005c4:	01400044 	movi	r5,1
 82005c8:	01020974 	movhi	r4,2085
 82005cc:	2130b604 	addi	r4,r4,-15656
 82005d0:	8202e400 	call	8202e40 <fwrite>
         fprintf(stderr, "\nError_code %d.\n", error_code);
 82005d4:	d0a00217 	ldw	r2,-32760(gp)
 82005d8:	10800317 	ldw	r2,12(r2)
 82005dc:	e0fffe03 	ldbu	r3,-8(fp)
 82005e0:	180d883a 	mov	r6,r3
 82005e4:	01420974 	movhi	r5,2085
 82005e8:	2970bb04 	addi	r5,r5,-15636
 82005ec:	1009883a 	mov	r4,r2
 82005f0:	8202d500 	call	8202d50 <fprintf>
         perror("\n[MicroC/OS-II]: (Not a MicroC/OS-II error), ERRNO: ");
 82005f4:	01020974 	movhi	r4,2085
 82005f8:	2130c004 	addi	r4,r4,-15616
 82005fc:	82033b80 	call	82033b8 <perror>
         break;
 8200600:	0001883a 	nop

   }

   /* Process the error based on the fault level, 
    * reenable scheduler if appropriate. */  
   switch (fault_level) {
 8200604:	e0bffd17 	ldw	r2,-12(fp)
 8200608:	10c00060 	cmpeqi	r3,r2,1
 820060c:	1800041e 	bne	r3,zero,8200620 <alt_uCOSIIErrorHandler+0x3d8>
 8200610:	00803a2e 	bgeu	zero,r2,82006fc <alt_uCOSIIErrorHandler+0x4b4>
 8200614:	108000a0 	cmpeqi	r2,r2,2
 8200618:	10001c1e 	bne	r2,zero,820068c <alt_uCOSIIErrorHandler+0x444>
 820061c:	00005106 	br	8200764 <alt_uCOSIIErrorHandler+0x51c>
      case TASK:
         /* Error can be isolated by killing the task */
         printf("\n[MicroC/OS-II]: See STDERR (FAULT_LEVEL is TASK).");
 8200620:	01020974 	movhi	r4,2085
 8200624:	2130ce04 	addi	r4,r4,-15560
 8200628:	82033fc0 	call	82033fc <printf>
         fprintf(stderr, "\n[MicroC/OS-II]: FAULT_LEVEL is TASK");
 820062c:	d0a00217 	ldw	r2,-32760(gp)
 8200630:	10800317 	ldw	r2,12(r2)
 8200634:	100f883a 	mov	r7,r2
 8200638:	01800904 	movi	r6,36
 820063c:	01400044 	movi	r5,1
 8200640:	01020974 	movhi	r4,2085
 8200644:	2130db04 	addi	r4,r4,-15508
 8200648:	8202e400 	call	8202e40 <fwrite>
         fprintf(stderr, "\n[MicroC/OS-II]: Task is being deleted.\n");
 820064c:	d0a00217 	ldw	r2,-32760(gp)
 8200650:	10800317 	ldw	r2,12(r2)
 8200654:	100f883a 	mov	r7,r2
 8200658:	01800a04 	movi	r6,40
 820065c:	01400044 	movi	r5,1
 8200660:	01020974 	movhi	r4,2085
 8200664:	2130e504 	addi	r4,r4,-15468
 8200668:	8202e400 	call	8202e40 <fwrite>
         OSSchedUnlock(); /* Reenable Task Switching */
 820066c:	82156d80 	call	82156d8 <OSSchedUnlock>
         OSTaskDel(OS_PRIO_SELF);
 8200670:	01003fc4 	movi	r4,255
 8200674:	821b0480 	call	821b048 <OSTaskDel>
         /* Reinvoke uCOSII error handler in case task deletion fails, in 
          * which case fault_level for this secondary error will be SYSTEM. */
         alt_uCOSIIErrorHandler(error_code, 0);         
 8200678:	e0bffe03 	ldbu	r2,-8(fp)
 820067c:	000b883a 	mov	r5,zero
 8200680:	1009883a 	mov	r4,r2
 8200684:	82002480 	call	8200248 <alt_uCOSIIErrorHandler>
         break;
 8200688:	00004106 	br	8200790 <alt_uCOSIIErrorHandler+0x548>
      case SYSTEM:
         /* Total System Failure, Restart Required */
         printf("\n[MicroC/OS-II]: See STDERR (FAULT_LEVEL is SYSTEM).");    
 820068c:	01020974 	movhi	r4,2085
 8200690:	2130f004 	addi	r4,r4,-15424
 8200694:	82033fc0 	call	82033fc <printf>
         fprintf(stderr, "\n[MicroC/OS-II]: FAULT_LEVEL is SYSTEM");
 8200698:	d0a00217 	ldw	r2,-32760(gp)
 820069c:	10800317 	ldw	r2,12(r2)
 82006a0:	100f883a 	mov	r7,r2
 82006a4:	01800984 	movi	r6,38
 82006a8:	01400044 	movi	r5,1
 82006ac:	01020974 	movhi	r4,2085
 82006b0:	2130fe04 	addi	r4,r4,-15368
 82006b4:	8202e400 	call	8202e40 <fwrite>
         fprintf(stderr, "\n[MicroC/OS-II]: FATAL Error, Restart required.");
 82006b8:	d0a00217 	ldw	r2,-32760(gp)
 82006bc:	10800317 	ldw	r2,12(r2)
 82006c0:	100f883a 	mov	r7,r2
 82006c4:	01800bc4 	movi	r6,47
 82006c8:	01400044 	movi	r5,1
 82006cc:	01020974 	movhi	r4,2085
 82006d0:	21310804 	addi	r4,r4,-15328
 82006d4:	8202e400 	call	8202e40 <fwrite>
         fprintf(stderr, "\n[MicroC/OS-II]: Locking scheduler - endless loop.\n");
 82006d8:	d0a00217 	ldw	r2,-32760(gp)
 82006dc:	10800317 	ldw	r2,12(r2)
 82006e0:	100f883a 	mov	r7,r2
 82006e4:	01800cc4 	movi	r6,51
 82006e8:	01400044 	movi	r5,1
 82006ec:	01020974 	movhi	r4,2085
 82006f0:	21311404 	addi	r4,r4,-15280
 82006f4:	8202e400 	call	8202e40 <fwrite>
         while(1); /* Since scheduler is locked,loop halts all task activity.*/
 82006f8:	003fff06 	br	82006f8 <alt_uCOSIIErrorHandler+0x4b0>
         break;
      case NONE:
         fprintf(stderr, "\n[MicroC/OS-II]: FAULT_LEVEL is NONE");
 82006fc:	d0a00217 	ldw	r2,-32760(gp)
 8200700:	10800317 	ldw	r2,12(r2)
 8200704:	100f883a 	mov	r7,r2
 8200708:	01800904 	movi	r6,36
 820070c:	01400044 	movi	r5,1
 8200710:	01020974 	movhi	r4,2085
 8200714:	21312104 	addi	r4,r4,-15228
 8200718:	8202e400 	call	8202e40 <fwrite>
         fprintf(stderr, "\n[MicroC/OS-II]: Informational error only, control"); 
 820071c:	d0a00217 	ldw	r2,-32760(gp)
 8200720:	10800317 	ldw	r2,12(r2)
 8200724:	100f883a 	mov	r7,r2
 8200728:	01800c84 	movi	r6,50
 820072c:	01400044 	movi	r5,1
 8200730:	01020974 	movhi	r4,2085
 8200734:	21312b04 	addi	r4,r4,-15188
 8200738:	8202e400 	call	8202e40 <fwrite>
         fprintf(stderr, 
 820073c:	d0a00217 	ldw	r2,-32760(gp)
 8200740:	10800317 	ldw	r2,12(r2)
 8200744:	100f883a 	mov	r7,r2
 8200748:	01800f84 	movi	r6,62
 820074c:	01400044 	movi	r5,1
 8200750:	01020974 	movhi	r4,2085
 8200754:	21313804 	addi	r4,r4,-15136
 8200758:	8202e400 	call	8202e40 <fwrite>
            "returned to task to complete processing at application level.\n");
         OSSchedUnlock(); /* Reenable Task Switching */
 820075c:	82156d80 	call	82156d8 <OSSchedUnlock>
         return;   
 8200760:	00000d06 	br	8200798 <alt_uCOSIIErrorHandler+0x550>
         break;      
      default:
         printf("\n[MicroC/OS-II]: See STDERR (FAULT_LEVEL is Unknown).\n");
 8200764:	01020974 	movhi	r4,2085
 8200768:	21314804 	addi	r4,r4,-15072
 820076c:	82036800 	call	8203680 <puts>
         fprintf(stderr, "\n[MicroC/OS-II]: FAULT_LEVEL is unknown!?!\n");
 8200770:	d0a00217 	ldw	r2,-32760(gp)
 8200774:	10800317 	ldw	r2,12(r2)
 8200778:	100f883a 	mov	r7,r2
 820077c:	01800ac4 	movi	r6,43
 8200780:	01400044 	movi	r5,1
 8200784:	01020974 	movhi	r4,2085
 8200788:	21315604 	addi	r4,r4,-15016
 820078c:	8202e400 	call	8202e40 <fwrite>
   }
   while(1); /* Correct Program Flow never gets here. */
 8200790:	003fff06 	br	8200790 <alt_uCOSIIErrorHandler+0x548>
{
   FAULT_LEVEL fault_level;
   
   if(error_code == OS_NO_ERR)
   {
      return;
 8200794:	0001883a 	nop
      default:
         printf("\n[MicroC/OS-II]: See STDERR (FAULT_LEVEL is Unknown).\n");
         fprintf(stderr, "\n[MicroC/OS-II]: FAULT_LEVEL is unknown!?!\n");
   }
   while(1); /* Correct Program Flow never gets here. */
}
 8200798:	e037883a 	mov	sp,fp
 820079c:	dfc00117 	ldw	ra,4(sp)
 82007a0:	df000017 	ldw	fp,0(sp)
 82007a4:	dec00204 	addi	sp,sp,8
 82007a8:	f800283a 	ret

082007ac <alt_NetworkErrorHandler>:

void alt_NetworkErrorHandler(INT8U error_code, void *expanded_diagnosis_ptr)
{
 82007ac:	defffb04 	addi	sp,sp,-20
 82007b0:	dfc00415 	stw	ra,16(sp)
 82007b4:	df000315 	stw	fp,12(sp)
 82007b8:	df000304 	addi	fp,sp,12
 82007bc:	2005883a 	mov	r2,r4
 82007c0:	e17fff15 	stw	r5,-4(fp)
 82007c4:	e0bffe05 	stb	r2,-8(fp)
   FAULT_LEVEL fault_level;

   if(error_code == OS_NO_ERR)
 82007c8:	e0bffe03 	ldbu	r2,-8(fp)
 82007cc:	10008a26 	beq	r2,zero,82009f8 <alt_NetworkErrorHandler+0x24c>
   {
      return;
   }

   fault_level = SYSTEM;   
 82007d0:	00800084 	movi	r2,2
 82007d4:	e0bffd15 	stw	r2,-12(fp)
   OSSchedLock();  /* Disable Task Switching but still service other IRQs */  
 82007d8:	821564c0 	call	821564c <OSSchedLock>

   if (error_code == EXPANDED_DIAGNOSIS_CODE) 
 82007dc:	e0bffe03 	ldbu	r2,-8(fp)
 82007e0:	10803fd8 	cmpnei	r2,r2,255
 82007e4:	1000101e 	bne	r2,zero,8200828 <alt_NetworkErrorHandler+0x7c>
   {
      fault_level = SYSTEM;
 82007e8:	00800084 	movi	r2,2
 82007ec:	e0bffd15 	stw	r2,-12(fp)
      printf("\n[Network]: See STDERR for expanded diagnosis translation.");    
 82007f0:	01020974 	movhi	r4,2085
 82007f4:	21316104 	addi	r4,r4,-14972
 82007f8:	82033fc0 	call	82033fc <printf>
      fprintf(stderr, "\n[Network]: %s", (char *)expanded_diagnosis_ptr);
 82007fc:	d0a00217 	ldw	r2,-32760(gp)
 8200800:	10800317 	ldw	r2,12(r2)
 8200804:	e1bfff17 	ldw	r6,-4(fp)
 8200808:	01420974 	movhi	r5,2085
 820080c:	29717004 	addi	r5,r5,-14912
 8200810:	1009883a 	mov	r4,r2
 8200814:	8202d500 	call	8202d50 <fprintf>
      /* Check errno also in case it has been set. */
      perror("\n[Network]:  ERRNO: ");
 8200818:	01020974 	movhi	r4,2085
 820081c:	21317404 	addi	r4,r4,-14896
 8200820:	82033b80 	call	82033b8 <perror>
 8200824:	00001006 	br	8200868 <alt_NetworkErrorHandler+0xbc>
   }
   else 
   {
      fault_level = TASK;
 8200828:	00800044 	movi	r2,1
 820082c:	e0bffd15 	stw	r2,-12(fp)
      printf("\n[Network]: See STDERR.\n");    
 8200830:	01020974 	movhi	r4,2085
 8200834:	21317a04 	addi	r4,r4,-14872
 8200838:	82036800 	call	8203680 <puts>
      fprintf(stderr, "\n[Network]: Error_code %d!\n", error_code);        
 820083c:	d0a00217 	ldw	r2,-32760(gp)
 8200840:	10800317 	ldw	r2,12(r2)
 8200844:	e0fffe03 	ldbu	r3,-8(fp)
 8200848:	180d883a 	mov	r6,r3
 820084c:	01420974 	movhi	r5,2085
 8200850:	29718004 	addi	r5,r5,-14848
 8200854:	1009883a 	mov	r4,r2
 8200858:	8202d500 	call	8202d50 <fprintf>
      perror("\n[Network]:  ERRNO: ");
 820085c:	01020974 	movhi	r4,2085
 8200860:	21317404 	addi	r4,r4,-14896
 8200864:	82033b80 	call	82033b8 <perror>
   }

   /* Process error based on fault level, reenable scheduler if appropriate. */     
   switch (fault_level) 
 8200868:	e0bffd17 	ldw	r2,-12(fp)
 820086c:	10c00060 	cmpeqi	r3,r2,1
 8200870:	1800041e 	bne	r3,zero,8200884 <alt_NetworkErrorHandler+0xd8>
 8200874:	00803a2e 	bgeu	zero,r2,8200960 <alt_NetworkErrorHandler+0x1b4>
 8200878:	108000a0 	cmpeqi	r2,r2,2
 820087c:	10001c1e 	bne	r2,zero,82008f0 <alt_NetworkErrorHandler+0x144>
 8200880:	00005106 	br	82009c8 <alt_NetworkErrorHandler+0x21c>
   {
      case TASK:
         /* Error can be isolated by killing the task */
         printf("\n[Network]: See STDERR (FAULT_LEVEL is TASK).");
 8200884:	01020974 	movhi	r4,2085
 8200888:	21318704 	addi	r4,r4,-14820
 820088c:	82033fc0 	call	82033fc <printf>
         fprintf(stderr, "\n[Network]: FAULT_LEVEL is TASK");
 8200890:	d0a00217 	ldw	r2,-32760(gp)
 8200894:	10800317 	ldw	r2,12(r2)
 8200898:	100f883a 	mov	r7,r2
 820089c:	018007c4 	movi	r6,31
 82008a0:	01400044 	movi	r5,1
 82008a4:	01020974 	movhi	r4,2085
 82008a8:	21319304 	addi	r4,r4,-14772
 82008ac:	8202e400 	call	8202e40 <fwrite>
         fprintf(stderr, "\n[Network]: Task is being deleted.\n");
 82008b0:	d0a00217 	ldw	r2,-32760(gp)
 82008b4:	10800317 	ldw	r2,12(r2)
 82008b8:	100f883a 	mov	r7,r2
 82008bc:	018008c4 	movi	r6,35
 82008c0:	01400044 	movi	r5,1
 82008c4:	01020974 	movhi	r4,2085
 82008c8:	21319b04 	addi	r4,r4,-14740
 82008cc:	8202e400 	call	8202e40 <fwrite>
         OSSchedUnlock(); /* Reenable Task Switching */
 82008d0:	82156d80 	call	82156d8 <OSSchedUnlock>
         OSTaskDel(OS_PRIO_SELF);
 82008d4:	01003fc4 	movi	r4,255
 82008d8:	821b0480 	call	821b048 <OSTaskDel>
         /* Reinvoke uCOSII error handler in case task deletion fails, in 
          * which case fault_level for this secondary error will be SYSTEM. */
         alt_uCOSIIErrorHandler(error_code, 0);         
 82008dc:	e0bffe03 	ldbu	r2,-8(fp)
 82008e0:	000b883a 	mov	r5,zero
 82008e4:	1009883a 	mov	r4,r2
 82008e8:	82002480 	call	8200248 <alt_uCOSIIErrorHandler>
         break;
 82008ec:	00004106 	br	82009f4 <alt_NetworkErrorHandler+0x248>
      case SYSTEM:
         /* Total System Failure, Restart Required */
         printf("\n[Network]: See STDERR (FAULT_LEVEL is SYSTEM).");    
 82008f0:	01020974 	movhi	r4,2085
 82008f4:	2131a404 	addi	r4,r4,-14704
 82008f8:	82033fc0 	call	82033fc <printf>
         fprintf(stderr, "\n[Network]: FAULT_LEVEL is SYSTEM.");
 82008fc:	d0a00217 	ldw	r2,-32760(gp)
 8200900:	10800317 	ldw	r2,12(r2)
 8200904:	100f883a 	mov	r7,r2
 8200908:	01800884 	movi	r6,34
 820090c:	01400044 	movi	r5,1
 8200910:	01020974 	movhi	r4,2085
 8200914:	2131b004 	addi	r4,r4,-14656
 8200918:	8202e400 	call	8202e40 <fwrite>
         fprintf(stderr, "\n[Network]: FATAL Error, Restart required.");
 820091c:	d0a00217 	ldw	r2,-32760(gp)
 8200920:	10800317 	ldw	r2,12(r2)
 8200924:	100f883a 	mov	r7,r2
 8200928:	01800a84 	movi	r6,42
 820092c:	01400044 	movi	r5,1
 8200930:	01020974 	movhi	r4,2085
 8200934:	2131b904 	addi	r4,r4,-14620
 8200938:	8202e400 	call	8202e40 <fwrite>
         fprintf(stderr, "\n[Network]: Locking scheduler - endless loop.\n");
 820093c:	d0a00217 	ldw	r2,-32760(gp)
 8200940:	10800317 	ldw	r2,12(r2)
 8200944:	100f883a 	mov	r7,r2
 8200948:	01800b84 	movi	r6,46
 820094c:	01400044 	movi	r5,1
 8200950:	01020974 	movhi	r4,2085
 8200954:	2131c404 	addi	r4,r4,-14576
 8200958:	8202e400 	call	8202e40 <fwrite>
         while(1); /* Since scheduler is locked, loop halts all task activity.*/
 820095c:	003fff06 	br	820095c <alt_NetworkErrorHandler+0x1b0>
         break;
      case NONE:
         fprintf(stderr, "\n[Network]: FAULT_LEVEL is NONE.");
 8200960:	d0a00217 	ldw	r2,-32760(gp)
 8200964:	10800317 	ldw	r2,12(r2)
 8200968:	100f883a 	mov	r7,r2
 820096c:	01800804 	movi	r6,32
 8200970:	01400044 	movi	r5,1
 8200974:	01020974 	movhi	r4,2085
 8200978:	2131d004 	addi	r4,r4,-14528
 820097c:	8202e400 	call	8202e40 <fwrite>
         fprintf(stderr, "\n[Network]: Informational "
 8200980:	d0a00217 	ldw	r2,-32760(gp)
 8200984:	10800317 	ldw	r2,12(r2)
 8200988:	100f883a 	mov	r7,r2
 820098c:	01800d84 	movi	r6,54
 8200990:	01400044 	movi	r5,1
 8200994:	01020974 	movhi	r4,2085
 8200998:	2131d904 	addi	r4,r4,-14492
 820099c:	8202e400 	call	8202e40 <fwrite>
                         "error only, control returned");
         fprintf(stderr, 
 82009a0:	d0a00217 	ldw	r2,-32760(gp)
 82009a4:	10800317 	ldw	r2,12(r2)
 82009a8:	100f883a 	mov	r7,r2
 82009ac:	01800e44 	movi	r6,57
 82009b0:	01400044 	movi	r5,1
 82009b4:	01020974 	movhi	r4,2085
 82009b8:	2131e704 	addi	r4,r4,-14436
 82009bc:	8202e400 	call	8202e40 <fwrite>
            "to task to complete processing at the application level.\n");
         OSSchedUnlock(); /* Reenable Task Switching */ 
 82009c0:	82156d80 	call	82156d8 <OSSchedUnlock>
         return;
 82009c4:	00000d06 	br	82009fc <alt_NetworkErrorHandler+0x250>
         break;         
      default:
         printf("\n[Network]: See STDERR (FAULT_LEVEL is unknown).\n");    
 82009c8:	01020974 	movhi	r4,2085
 82009cc:	2131f604 	addi	r4,r4,-14376
 82009d0:	82036800 	call	8203680 <puts>
         fprintf(stderr, "\n[Network] FAULT_LEVEL is unknown !?!\n");
 82009d4:	d0a00217 	ldw	r2,-32760(gp)
 82009d8:	10800317 	ldw	r2,12(r2)
 82009dc:	100f883a 	mov	r7,r2
 82009e0:	01800984 	movi	r6,38
 82009e4:	01400044 	movi	r5,1
 82009e8:	01020974 	movhi	r4,2085
 82009ec:	21320304 	addi	r4,r4,-14324
 82009f0:	8202e400 	call	8202e40 <fwrite>
   }
   while(1); /* Correct Program Flow never gets here. */
 82009f4:	003fff06 	br	82009f4 <alt_NetworkErrorHandler+0x248>
{
   FAULT_LEVEL fault_level;

   if(error_code == OS_NO_ERR)
   {
      return;
 82009f8:	0001883a 	nop
      default:
         printf("\n[Network]: See STDERR (FAULT_LEVEL is unknown).\n");    
         fprintf(stderr, "\n[Network] FAULT_LEVEL is unknown !?!\n");
   }
   while(1); /* Correct Program Flow never gets here. */
}
 82009fc:	e037883a 	mov	sp,fp
 8200a00:	dfc00117 	ldw	ra,4(sp)
 8200a04:	df000017 	ldw	fp,0(sp)
 8200a08:	dec00204 	addi	sp,sp,8
 8200a0c:	f800283a 	ret

08200a10 <alt_SSSErrorHandler>:
   
   
void alt_SSSErrorHandler(INT8U error_code, 
                         void *expanded_diagnosis_ptr)
{
 8200a10:	defffb04 	addi	sp,sp,-20
 8200a14:	dfc00415 	stw	ra,16(sp)
 8200a18:	df000315 	stw	fp,12(sp)
 8200a1c:	df000304 	addi	fp,sp,12
 8200a20:	2005883a 	mov	r2,r4
 8200a24:	e17fff15 	stw	r5,-4(fp)
 8200a28:	e0bffe05 	stb	r2,-8(fp)
   FAULT_LEVEL fault_level;
   
   if   (error_code == OS_NO_ERR)
 8200a2c:	e0bffe03 	ldbu	r2,-8(fp)
 8200a30:	10009726 	beq	r2,zero,8200c90 <alt_SSSErrorHandler+0x280>
   {
      return;
   }

   fault_level = (error_code == OS_NO_ERR) ? NONE : SYSTEM;
 8200a34:	e0bffe03 	ldbu	r2,-8(fp)
 8200a38:	1000021e 	bne	r2,zero,8200a44 <alt_SSSErrorHandler+0x34>
 8200a3c:	0005883a 	mov	r2,zero
 8200a40:	00000106 	br	8200a48 <alt_SSSErrorHandler+0x38>
 8200a44:	00800084 	movi	r2,2
 8200a48:	e0bffd15 	stw	r2,-12(fp)
   
   OSSchedLock();  /* Disable Task Switching but still service other IRQs */
 8200a4c:	821564c0 	call	821564c <OSSchedLock>
   switch (error_code)
 8200a50:	e0bffe03 	ldbu	r2,-8(fp)
 8200a54:	10c007a0 	cmpeqi	r3,r2,30
 8200a58:	18000f1e 	bne	r3,zero,8200a98 <alt_SSSErrorHandler+0x88>
 8200a5c:	10803fe0 	cmpeqi	r2,r2,255
 8200a60:	10001726 	beq	r2,zero,8200ac0 <alt_SSSErrorHandler+0xb0>
   {
      case EXPANDED_DIAGNOSIS_CODE:      
         fault_level = SYSTEM;
 8200a64:	00800084 	movi	r2,2
 8200a68:	e0bffd15 	stw	r2,-12(fp)
         printf("\n[SSS]: See STDERR for expanded diagnosis translation.");    
 8200a6c:	01020974 	movhi	r4,2085
 8200a70:	21320d04 	addi	r4,r4,-14284
 8200a74:	82033fc0 	call	82033fc <printf>
         fprintf(stderr, "\n[SSS]: %s", (char *)expanded_diagnosis_ptr);
 8200a78:	d0a00217 	ldw	r2,-32760(gp)
 8200a7c:	10800317 	ldw	r2,12(r2)
 8200a80:	e1bfff17 	ldw	r6,-4(fp)
 8200a84:	01420974 	movhi	r5,2085
 8200a88:	29721b04 	addi	r5,r5,-14228
 8200a8c:	1009883a 	mov	r4,r2
 8200a90:	8202d500 	call	8202d50 <fprintf>
         break;
 8200a94:	00001a06 	br	8200b00 <alt_SSSErrorHandler+0xf0>
         
      case OS_Q_FULL:
         fault_level = NONE;
 8200a98:	e03ffd15 	stw	zero,-12(fp)
         fprintf(stderr,"\n[SSS]: Attempted to post to a full message queue.");
 8200a9c:	d0a00217 	ldw	r2,-32760(gp)
 8200aa0:	10800317 	ldw	r2,12(r2)
 8200aa4:	100f883a 	mov	r7,r2
 8200aa8:	01800c84 	movi	r6,50
 8200aac:	01400044 	movi	r5,1
 8200ab0:	01020974 	movhi	r4,2085
 8200ab4:	21321e04 	addi	r4,r4,-14216
 8200ab8:	8202e400 	call	8202e40 <fwrite>
         break;
 8200abc:	00001006 	br	8200b00 <alt_SSSErrorHandler+0xf0>
      
      default:
         fault_level = SYSTEM;
 8200ac0:	00800084 	movi	r2,2
 8200ac4:	e0bffd15 	stw	r2,-12(fp)
         printf("\n[SSS]: See STDERR.\n");    
 8200ac8:	01020974 	movhi	r4,2085
 8200acc:	21322b04 	addi	r4,r4,-14164
 8200ad0:	82036800 	call	8203680 <puts>
         fprintf(stderr, "\n[SSS]: Error_code %d!", error_code);        
 8200ad4:	d0a00217 	ldw	r2,-32760(gp)
 8200ad8:	10800317 	ldw	r2,12(r2)
 8200adc:	e0fffe03 	ldbu	r3,-8(fp)
 8200ae0:	180d883a 	mov	r6,r3
 8200ae4:	01420974 	movhi	r5,2085
 8200ae8:	29723004 	addi	r5,r5,-14144
 8200aec:	1009883a 	mov	r4,r2
 8200af0:	8202d500 	call	8202d50 <fprintf>
         perror("\n[SSS]:  ERRNO: ");
 8200af4:	01020974 	movhi	r4,2085
 8200af8:	21323604 	addi	r4,r4,-14120
 8200afc:	82033b80 	call	82033b8 <perror>
   }

   /* Process the error based on the fault level, 
    * reenable scheduler if appropriate. */     
   switch (fault_level) 
 8200b00:	e0bffd17 	ldw	r2,-12(fp)
 8200b04:	10c00060 	cmpeqi	r3,r2,1
 8200b08:	1800041e 	bne	r3,zero,8200b1c <alt_SSSErrorHandler+0x10c>
 8200b0c:	00803a2e 	bgeu	zero,r2,8200bf8 <alt_SSSErrorHandler+0x1e8>
 8200b10:	108000a0 	cmpeqi	r2,r2,2
 8200b14:	10001c1e 	bne	r2,zero,8200b88 <alt_SSSErrorHandler+0x178>
 8200b18:	00005106 	br	8200c60 <alt_SSSErrorHandler+0x250>
   {
      case TASK:
         /* Error can be isolated by killing the task */
         printf("\n[SSS]: See STDERR (FAULT_LEVEL is TASK).");
 8200b1c:	01020974 	movhi	r4,2085
 8200b20:	21323b04 	addi	r4,r4,-14100
 8200b24:	82033fc0 	call	82033fc <printf>
         fprintf(stderr, "\n[SSS]: FAULT_LEVEL is TASK");
 8200b28:	d0a00217 	ldw	r2,-32760(gp)
 8200b2c:	10800317 	ldw	r2,12(r2)
 8200b30:	100f883a 	mov	r7,r2
 8200b34:	018006c4 	movi	r6,27
 8200b38:	01400044 	movi	r5,1
 8200b3c:	01020974 	movhi	r4,2085
 8200b40:	21324604 	addi	r4,r4,-14056
 8200b44:	8202e400 	call	8202e40 <fwrite>
         fprintf(stderr, "\n[SSS]: Task is being deleted.\n");
 8200b48:	d0a00217 	ldw	r2,-32760(gp)
 8200b4c:	10800317 	ldw	r2,12(r2)
 8200b50:	100f883a 	mov	r7,r2
 8200b54:	018007c4 	movi	r6,31
 8200b58:	01400044 	movi	r5,1
 8200b5c:	01020974 	movhi	r4,2085
 8200b60:	21324d04 	addi	r4,r4,-14028
 8200b64:	8202e400 	call	8202e40 <fwrite>
         OSSchedUnlock(); /* Reenable Task Switching */
 8200b68:	82156d80 	call	82156d8 <OSSchedUnlock>
         OSTaskDel(OS_PRIO_SELF);
 8200b6c:	01003fc4 	movi	r4,255
 8200b70:	821b0480 	call	821b048 <OSTaskDel>
         /* Invoke uCOSII error handler in case task deletion fails, in 
          * which case fault_level for this secondary error will be SYSTEM. */
         alt_uCOSIIErrorHandler(error_code, 0);         
 8200b74:	e0bffe03 	ldbu	r2,-8(fp)
 8200b78:	000b883a 	mov	r5,zero
 8200b7c:	1009883a 	mov	r4,r2
 8200b80:	82002480 	call	8200248 <alt_uCOSIIErrorHandler>
         break;
 8200b84:	00004106 	br	8200c8c <alt_SSSErrorHandler+0x27c>
      case SYSTEM:
          /* Total System Failure, Restart Required */
         printf("\n[SSS]: See STDERR (FAULT_LEVEL is SYSTEM).");    
 8200b88:	01020974 	movhi	r4,2085
 8200b8c:	21325504 	addi	r4,r4,-13996
 8200b90:	82033fc0 	call	82033fc <printf>
         fprintf(stderr, "\n[SSS]: FAULT_LEVEL is SYSTEM.");
 8200b94:	d0a00217 	ldw	r2,-32760(gp)
 8200b98:	10800317 	ldw	r2,12(r2)
 8200b9c:	100f883a 	mov	r7,r2
 8200ba0:	01800784 	movi	r6,30
 8200ba4:	01400044 	movi	r5,1
 8200ba8:	01020974 	movhi	r4,2085
 8200bac:	21326004 	addi	r4,r4,-13952
 8200bb0:	8202e400 	call	8202e40 <fwrite>
         fprintf(stderr, "\n[SSS]: FATAL Error, Restart required.");
 8200bb4:	d0a00217 	ldw	r2,-32760(gp)
 8200bb8:	10800317 	ldw	r2,12(r2)
 8200bbc:	100f883a 	mov	r7,r2
 8200bc0:	01800984 	movi	r6,38
 8200bc4:	01400044 	movi	r5,1
 8200bc8:	01020974 	movhi	r4,2085
 8200bcc:	21326804 	addi	r4,r4,-13920
 8200bd0:	8202e400 	call	8202e40 <fwrite>
         fprintf(stderr, "\n[SSS]: Locking scheduler - endless loop.\n");
 8200bd4:	d0a00217 	ldw	r2,-32760(gp)
 8200bd8:	10800317 	ldw	r2,12(r2)
 8200bdc:	100f883a 	mov	r7,r2
 8200be0:	01800a84 	movi	r6,42
 8200be4:	01400044 	movi	r5,1
 8200be8:	01020974 	movhi	r4,2085
 8200bec:	21327204 	addi	r4,r4,-13880
 8200bf0:	8202e400 	call	8202e40 <fwrite>
         while(1); /* Since scheduler is locked, loop halts all task activity.*/
 8200bf4:	003fff06 	br	8200bf4 <alt_SSSErrorHandler+0x1e4>
         break;
      case NONE:
         fprintf(stderr, "\n[SSS] FAULT_LEVEL is NONE.");
 8200bf8:	d0a00217 	ldw	r2,-32760(gp)
 8200bfc:	10800317 	ldw	r2,12(r2)
 8200c00:	100f883a 	mov	r7,r2
 8200c04:	018006c4 	movi	r6,27
 8200c08:	01400044 	movi	r5,1
 8200c0c:	01020974 	movhi	r4,2085
 8200c10:	21327d04 	addi	r4,r4,-13836
 8200c14:	8202e400 	call	8202e40 <fwrite>
         fprintf(stderr, 
 8200c18:	d0a00217 	ldw	r2,-32760(gp)
 8200c1c:	10800317 	ldw	r2,12(r2)
 8200c20:	100f883a 	mov	r7,r2
 8200c24:	01800f44 	movi	r6,61
 8200c28:	01400044 	movi	r5,1
 8200c2c:	01020974 	movhi	r4,2085
 8200c30:	21328404 	addi	r4,r4,-13808
 8200c34:	8202e400 	call	8202e40 <fwrite>
            "\n[SSS] Informational error only, control returned to task to ");
         fprintf(stderr,
 8200c38:	d0a00217 	ldw	r2,-32760(gp)
 8200c3c:	10800317 	ldw	r2,12(r2)
 8200c40:	100f883a 	mov	r7,r2
 8200c44:	01800b84 	movi	r6,46
 8200c48:	01400044 	movi	r5,1
 8200c4c:	01020974 	movhi	r4,2085
 8200c50:	21329404 	addi	r4,r4,-13744
 8200c54:	8202e400 	call	8202e40 <fwrite>
            "complete processing at the application level.\n");
         OSSchedUnlock(); /* Reenable Task Switching */ 
 8200c58:	82156d80 	call	82156d8 <OSSchedUnlock>
         return;         
 8200c5c:	00000d06 	br	8200c94 <alt_SSSErrorHandler+0x284>
         break;
      default:
         printf("\n[SSS]: See STDERR (FAULT_LEVEL is Unknown).\n");
 8200c60:	01020974 	movhi	r4,2085
 8200c64:	2132a004 	addi	r4,r4,-13696
 8200c68:	82036800 	call	8203680 <puts>
         fprintf(stderr, "\n[SSS] FAULT_LEVEL is unknown!?!\n");
 8200c6c:	d0a00217 	ldw	r2,-32760(gp)
 8200c70:	10800317 	ldw	r2,12(r2)
 8200c74:	100f883a 	mov	r7,r2
 8200c78:	01800844 	movi	r6,33
 8200c7c:	01400044 	movi	r5,1
 8200c80:	01020974 	movhi	r4,2085
 8200c84:	2132ac04 	addi	r4,r4,-13648
 8200c88:	8202e400 	call	8202e40 <fwrite>
   }
   while(1); /* Correct Program Flow never gets here. */
 8200c8c:	003fff06 	br	8200c8c <alt_SSSErrorHandler+0x27c>
{
   FAULT_LEVEL fault_level;
   
   if   (error_code == OS_NO_ERR)
   {
      return;
 8200c90:	0001883a 	nop
      default:
         printf("\n[SSS]: See STDERR (FAULT_LEVEL is Unknown).\n");
         fprintf(stderr, "\n[SSS] FAULT_LEVEL is unknown!?!\n");
   }
   while(1); /* Correct Program Flow never gets here. */
}
 8200c94:	e037883a 	mov	sp,fp
 8200c98:	dfc00117 	ldw	ra,4(sp)
 8200c9c:	df000017 	ldw	fp,0(sp)
 8200ca0:	dec00204 	addi	sp,sp,8
 8200ca4:	f800283a 	ret

08200ca8 <SSSInitialTask>:
/* SSSInitialTask will initialize the NicheStack
 * TCP/IP Stack and then initialize the rest of the Simple Socket Server example 
 * RTOS structures and tasks. 
 */
void SSSInitialTask(void *task_data)
{
 8200ca8:	defffc04 	addi	sp,sp,-16
 8200cac:	dfc00315 	stw	ra,12(sp)
 8200cb0:	df000215 	stw	fp,8(sp)
 8200cb4:	df000204 	addi	fp,sp,8
 8200cb8:	e13fff15 	stw	r4,-4(fp)
   * NicheStack is initialized from a task, so that RTOS will have started, and 
   * I/O drivers are available.  Two tasks are created:
   *    "Inet main"  task with priority 2
   *    "clock tick" task with priority 3
   */   
  alt_iniche_init();
 8200cbc:	822dd3c0 	call	822dd3c <alt_iniche_init>
  netmain(); 
 8200cc0:	822934c0 	call	822934c <netmain>

  /* Wait for the network stack to be ready before proceeding. 
   * iniche_net_ready indicates that TCP/IP stack is ready, and IP address is obtained.
   */
  while (!iniche_net_ready)
 8200cc4:	00000206 	br	8200cd0 <SSSInitialTask+0x28>
    TK_SLEEP(1);
 8200cc8:	01000084 	movi	r4,2
 8200ccc:	821bf340 	call	821bf34 <OSTimeDly>
  netmain(); 

  /* Wait for the network stack to be ready before proceeding. 
   * iniche_net_ready indicates that TCP/IP stack is ready, and IP address is obtained.
   */
  while (!iniche_net_ready)
 8200cd0:	d0a08c17 	ldw	r2,-32208(gp)
 8200cd4:	103ffc26 	beq	r2,zero,8200cc8 <SSSInitialTask+0x20>

  /* Now that the stack is running, perform the application initialization steps */
  
  /* Application Specific Task Launching Code Block Begin */

  printf("\nSimple Socket Server starting up\n");
 8200cd8:	01020974 	movhi	r4,2085
 8200cdc:	2132bb04 	addi	r4,r4,-13588
 8200ce0:	82036800 	call	8203680 <puts>

  /* Create the main simple socket server task. */
  TK_NEWTASK(&ssstask);
 8200ce4:	01020974 	movhi	r4,2085
 8200ce8:	2107d404 	addi	r4,r4,8016
 8200cec:	822d9b80 	call	822d9b8 <TK_NEWTASK>
  
  /*create os data structures */
  SSSCreateOSDataStructs(); 
 8200cf0:	82018d80 	call	82018d8 <SSSCreateOSDataStructs>

  /* create the other tasks */
  SSSCreateTasks();
 8200cf4:	820197c0 	call	820197c <SSSCreateTasks>

  /* Application Specific Task Launching Code Block End */
  
  /*This task is deleted because there is no need for it to run again */
  error_code = OSTaskDel(OS_PRIO_SELF);
 8200cf8:	01003fc4 	movi	r4,255
 8200cfc:	821b0480 	call	821b048 <OSTaskDel>
 8200d00:	e0bffe05 	stb	r2,-8(fp)
  alt_uCOSIIErrorHandler(error_code, 0);
 8200d04:	e0bffe03 	ldbu	r2,-8(fp)
 8200d08:	000b883a 	mov	r5,zero
 8200d0c:	1009883a 	mov	r4,r2
 8200d10:	82002480 	call	8200248 <alt_uCOSIIErrorHandler>
  
  while (1); /* Correct Program Flow should never get here */
 8200d14:	003fff06 	br	8200d14 <SSSInitialTask+0x6c>

08200d18 <main>:

/* Main creates a single task, SSSInitialTask, and starts task scheduler.
 */

int main (int argc, char* argv[], char* envp[])
{
 8200d18:	defff504 	addi	sp,sp,-44
 8200d1c:	dfc00a15 	stw	ra,40(sp)
 8200d20:	df000915 	stw	fp,36(sp)
 8200d24:	df000904 	addi	fp,sp,36
 8200d28:	e13ffd15 	stw	r4,-12(fp)
 8200d2c:	e17ffe15 	stw	r5,-8(fp)
 8200d30:	e1bfff15 	stw	r6,-4(fp)
  
  INT8U error_code;

  /* Clear the RTOS timer */
  OSTimeSet(0);
 8200d34:	0009883a 	mov	r4,zero
 8200d38:	821c3c80 	call	821c3c8 <OSTimeSet>

  /* SSSInitialTask will initialize the NicheStack
   * TCP/IP Stack and then initialize the rest of the Simple Socket Server example 
   * RTOS structures and tasks. 
   */  
  error_code = OSTaskCreateExt(SSSInitialTask,
 8200d3c:	d8000415 	stw	zero,16(sp)
 8200d40:	d8000315 	stw	zero,12(sp)
 8200d44:	00820004 	movi	r2,2048
 8200d48:	d8800215 	stw	r2,8(sp)
 8200d4c:	00820974 	movhi	r2,2085
 8200d50:	10923904 	addi	r2,r2,18660
 8200d54:	d8800115 	stw	r2,4(sp)
 8200d58:	00800144 	movi	r2,5
 8200d5c:	d8800015 	stw	r2,0(sp)
 8200d60:	01c00144 	movi	r7,5
 8200d64:	01820974 	movhi	r6,2085
 8200d68:	319a3904 	addi	r6,r6,26852
 8200d6c:	000b883a 	mov	r5,zero
 8200d70:	01020834 	movhi	r4,2080
 8200d74:	21032a04 	addi	r4,r4,3240
 8200d78:	821ae640 	call	821ae64 <OSTaskCreateExt>
 8200d7c:	e0bffc05 	stb	r2,-16(fp)
                             SSS_INITIAL_TASK_PRIORITY,
                             SSSInitialTaskStk,
                             TASK_STACKSIZE,
                             NULL,
                             0);
  alt_uCOSIIErrorHandler(error_code, 0);
 8200d80:	e0bffc03 	ldbu	r2,-16(fp)
 8200d84:	000b883a 	mov	r5,zero
 8200d88:	1009883a 	mov	r4,r2
 8200d8c:	82002480 	call	8200248 <alt_uCOSIIErrorHandler>

  /*
   * As with all MicroC/OS-II designs, once the initial thread(s) and 
   * associated RTOS resources are declared, we start the RTOS. That's it!
   */
  OSStart();
 8200d90:	82157b40 	call	82157b4 <OSStart>

  
  while(1); /* Correct Program Flow never gets here. */
 8200d94:	003fff06 	br	8200d94 <main+0x7c>

08200d98 <led_bit_toggle>:
 * Development Board which controls 8 LEDs, D0 - D7.
 * 
 */
 
void led_bit_toggle(OS_FLAGS bit)
{
 8200d98:	defffc04 	addi	sp,sp,-16
 8200d9c:	dfc00315 	stw	ra,12(sp)
 8200da0:	df000215 	stw	fp,8(sp)
 8200da4:	df000204 	addi	fp,sp,8
 8200da8:	2005883a 	mov	r2,r4
 8200dac:	e0bfff0d 	sth	r2,-4(fp)
    OS_FLAGS  led_8_val;
    INT8U error_code;
    
    led_8_val = OSFlagQuery(SSSLEDEventFlag, &error_code);
 8200db0:	d0a05c17 	ldw	r2,-32400(gp)
 8200db4:	e0fffe84 	addi	r3,fp,-6
 8200db8:	180b883a 	mov	r5,r3
 8200dbc:	1009883a 	mov	r4,r2
 8200dc0:	82180740 	call	8218074 <OSFlagQuery>
 8200dc4:	e0bffe0d 	sth	r2,-8(fp)
    alt_uCOSIIErrorHandler(error_code, 0);
 8200dc8:	e0bffe83 	ldbu	r2,-6(fp)
 8200dcc:	10803fcc 	andi	r2,r2,255
 8200dd0:	000b883a 	mov	r5,zero
 8200dd4:	1009883a 	mov	r4,r2
 8200dd8:	82002480 	call	8200248 <alt_uCOSIIErrorHandler>
    if (bit & led_8_val)
 8200ddc:	e0ffff0b 	ldhu	r3,-4(fp)
 8200de0:	e0bffe0b 	ldhu	r2,-8(fp)
 8200de4:	1884703a 	and	r2,r3,r2
 8200de8:	10bfffcc 	andi	r2,r2,65535
 8200dec:	10000f26 	beq	r2,zero,8200e2c <led_bit_toggle+0x94>
    {
       led_8_val = OSFlagPost(SSSLEDEventFlag, bit, OS_FLAG_CLR, &error_code);
 8200df0:	d0a05c17 	ldw	r2,-32400(gp)
 8200df4:	e0ffff0b 	ldhu	r3,-4(fp)
 8200df8:	e13ffe84 	addi	r4,fp,-6
 8200dfc:	200f883a 	mov	r7,r4
 8200e00:	000d883a 	mov	r6,zero
 8200e04:	180b883a 	mov	r5,r3
 8200e08:	1009883a 	mov	r4,r2
 8200e0c:	8217ce00 	call	8217ce0 <OSFlagPost>
 8200e10:	e0bffe0d 	sth	r2,-8(fp)
       alt_uCOSIIErrorHandler(error_code, 0);
 8200e14:	e0bffe83 	ldbu	r2,-6(fp)
 8200e18:	10803fcc 	andi	r2,r2,255
 8200e1c:	000b883a 	mov	r5,zero
 8200e20:	1009883a 	mov	r4,r2
 8200e24:	82002480 	call	8200248 <alt_uCOSIIErrorHandler>
    #ifdef LED_PIO_BASE
       IOWR_ALTERA_AVALON_PIO_DATA(LED_PIO_BASE, led_8_val);
       printf("Value for LED_PIO_BASE set to %d.\n", (INT8U)led_8_val);
    #endif
      
    return;
 8200e28:	00000f06 	br	8200e68 <led_bit_toggle+0xd0>
       led_8_val = OSFlagPost(SSSLEDEventFlag, bit, OS_FLAG_CLR, &error_code);
       alt_uCOSIIErrorHandler(error_code, 0);
    }
    else
    {
       led_8_val = OSFlagPost(SSSLEDEventFlag, bit, OS_FLAG_SET, &error_code);
 8200e2c:	d0a05c17 	ldw	r2,-32400(gp)
 8200e30:	e0ffff0b 	ldhu	r3,-4(fp)
 8200e34:	e13ffe84 	addi	r4,fp,-6
 8200e38:	200f883a 	mov	r7,r4
 8200e3c:	01800044 	movi	r6,1
 8200e40:	180b883a 	mov	r5,r3
 8200e44:	1009883a 	mov	r4,r2
 8200e48:	8217ce00 	call	8217ce0 <OSFlagPost>
 8200e4c:	e0bffe0d 	sth	r2,-8(fp)
       alt_uCOSIIErrorHandler(error_code, 0);
 8200e50:	e0bffe83 	ldbu	r2,-6(fp)
 8200e54:	10803fcc 	andi	r2,r2,255
 8200e58:	000b883a 	mov	r5,zero
 8200e5c:	1009883a 	mov	r4,r2
 8200e60:	82002480 	call	8200248 <alt_uCOSIIErrorHandler>
    #ifdef LED_PIO_BASE
       IOWR_ALTERA_AVALON_PIO_DATA(LED_PIO_BASE, led_8_val);
       printf("Value for LED_PIO_BASE set to %d.\n", (INT8U)led_8_val);
    #endif
      
    return;
 8200e64:	0001883a 	nop
}
 8200e68:	e037883a 	mov	sp,fp
 8200e6c:	dfc00117 	ldw	ra,4(sp)
 8200e70:	df000017 	ldw	fp,0(sp)
 8200e74:	dec00204 	addi	sp,sp,8
 8200e78:	f800283a 	ret

08200e7c <LED7SegLightshowTask>:
 * SSSLEDLightshowSem semaphore controlled in LEDManagementTask.
 * 
 */ 
 
void LED7SegLightshowTask()
{
 8200e7c:	defffd04 	addi	sp,sp,-12
 8200e80:	dfc00215 	stw	ra,8(sp)
 8200e84:	df000115 	stw	fp,4(sp)
 8200e88:	df000104 	addi	fp,sp,4
   {
    
      /* Wait 50 milliseconds between pattern updates, to make the pattern slow
       * enough for the human eye, and more impotantly, to give up control so
       * MicroC/OS-II can schedule other lower priority tasks. */ 
      OSTimeDlyHMSM(0,0,0,50);
 8200e8c:	01c00c84 	movi	r7,50
 8200e90:	000d883a 	mov	r6,zero
 8200e94:	000b883a 	mov	r5,zero
 8200e98:	0009883a 	mov	r4,zero
 8200e9c:	821c0380 	call	821c038 <OSTimeDlyHMSM>
      
      /* Check that we still have the SSSLEDLightshowSem semaphore. If we don't,
       * then wait until the LEDManagement task gives it back to us. */
      OSSemPend(SSSLEDLightshowSem, 0, &error_code);
 8200ea0:	d0a05b17 	ldw	r2,-32404(gp)
 8200ea4:	e1bfff04 	addi	r6,fp,-4
 8200ea8:	000b883a 	mov	r5,zero
 8200eac:	1009883a 	mov	r4,r2
 8200eb0:	821a1300 	call	821a130 <OSSemPend>
      alt_uCOSIIErrorHandler(error_code, 0);
 8200eb4:	e0bfff03 	ldbu	r2,-4(fp)
 8200eb8:	10803fcc 	andi	r2,r2,255
 8200ebc:	000b883a 	mov	r5,zero
 8200ec0:	1009883a 	mov	r4,r2
 8200ec4:	82002480 	call	8200248 <alt_uCOSIIErrorHandler>
      #if SEVEN_SEG_PIO_BASE
         led_7_seg_val = rand();
         IOWR_ALTERA_AVALON_PIO_DATA(SEVEN_SEG_PIO_BASE, led_7_seg_val);
      #endif
      
      error_code = OSSemPost(SSSLEDLightshowSem);
 8200ec8:	d0a05b17 	ldw	r2,-32404(gp)
 8200ecc:	1009883a 	mov	r4,r2
 8200ed0:	821a4a80 	call	821a4a8 <OSSemPost>
 8200ed4:	e0bfff05 	stb	r2,-4(fp)
      alt_uCOSIIErrorHandler(error_code, 0);
 8200ed8:	e0bfff03 	ldbu	r2,-4(fp)
 8200edc:	10803fcc 	andi	r2,r2,255
 8200ee0:	000b883a 	mov	r5,zero
 8200ee4:	1009883a 	mov	r4,r2
 8200ee8:	82002480 	call	8200248 <alt_uCOSIIErrorHandler>
      
   }
 8200eec:	003fe706 	br	8200e8c <LED7SegLightshowTask+0x10>

08200ef0 <LEDManagementTask>:
 * The task will read the SSSLedCommandQ for an 
 * in-coming message command from the SSSSimpleSocketServerTask. 
 */
 
void LEDManagementTask()
{
 8200ef0:	defffb04 	addi	sp,sp,-20
 8200ef4:	dfc00415 	stw	ra,16(sp)
 8200ef8:	df000315 	stw	fp,12(sp)
 8200efc:	df000304 	addi	fp,sp,12
  
  INT32U led_command; 
  BOOLEAN SSSLEDLightshowActive;
  INT8U error_code;
  
  SSSLEDLightshowActive = OS_TRUE;
 8200f00:	00800044 	movi	r2,1
 8200f04:	e0bffd05 	stb	r2,-12(fp)
  
  while(1)
  {
    led_command = (INT32U)OSQPend(SSSLEDCommandQ, 0, &error_code);
 8200f08:	d0a05a17 	ldw	r2,-32408(gp)
 8200f0c:	e0ffff04 	addi	r3,fp,-4
 8200f10:	180d883a 	mov	r6,r3
 8200f14:	000b883a 	mov	r5,zero
 8200f18:	1009883a 	mov	r4,r2
 8200f1c:	82192880 	call	8219288 <OSQPend>
 8200f20:	e0bffe15 	stw	r2,-8(fp)
   
    alt_uCOSIIErrorHandler(error_code, 0);
 8200f24:	e0bfff03 	ldbu	r2,-4(fp)
 8200f28:	10803fcc 	andi	r2,r2,255
 8200f2c:	000b883a 	mov	r5,zero
 8200f30:	1009883a 	mov	r4,r2
 8200f34:	82002480 	call	8200248 <alt_uCOSIIErrorHandler>
        
    switch (led_command) {
 8200f38:	e0bffe17 	ldw	r2,-8(fp)
 8200f3c:	10bff404 	addi	r2,r2,-48
 8200f40:	10c00928 	cmpgeui	r3,r2,36
 8200f44:	18005d1e 	bne	r3,zero,82010bc <LEDManagementTask+0x1cc>
 8200f48:	100690ba 	slli	r3,r2,2
 8200f4c:	00820834 	movhi	r2,2080
 8200f50:	1083d804 	addi	r2,r2,3936
 8200f54:	1885883a 	add	r2,r3,r2
 8200f58:	10800017 	ldw	r2,0(r2)
 8200f5c:	1000683a 	jmp	r2
 8200f60:	08200ff0 	cmpltui	zero,at,32831
 8200f64:	08200ffc 	xorhi	zero,at,32831
 8200f68:	08201008 	cmpgei	zero,at,-32704
 8200f6c:	08201014 	ori	zero,at,32832
 8200f70:	08201020 	cmpeqi	zero,at,-32704
 8200f74:	0820102c 	andhi	zero,at,32832
 8200f78:	08201038 	rdprs	zero,at,-32704
 8200f7c:	08201044 	addi	zero,at,-32703
 8200f80:	082010bc 	xorhi	zero,at,32834
 8200f84:	082010bc 	xorhi	zero,at,32834
 8200f88:	082010bc 	xorhi	zero,at,32834
 8200f8c:	082010bc 	xorhi	zero,at,32834
 8200f90:	082010bc 	xorhi	zero,at,32834
 8200f94:	082010bc 	xorhi	zero,at,32834
 8200f98:	082010bc 	xorhi	zero,at,32834
 8200f9c:	082010bc 	xorhi	zero,at,32834
 8200fa0:	082010bc 	xorhi	zero,at,32834
 8200fa4:	082010bc 	xorhi	zero,at,32834
 8200fa8:	082010bc 	xorhi	zero,at,32834
 8200fac:	082010bc 	xorhi	zero,at,32834
 8200fb0:	082010bc 	xorhi	zero,at,32834
 8200fb4:	082010bc 	xorhi	zero,at,32834
 8200fb8:	082010bc 	xorhi	zero,at,32834
 8200fbc:	082010bc 	xorhi	zero,at,32834
 8200fc0:	082010bc 	xorhi	zero,at,32834
 8200fc4:	082010bc 	xorhi	zero,at,32834
 8200fc8:	082010bc 	xorhi	zero,at,32834
 8200fcc:	082010bc 	xorhi	zero,at,32834
 8200fd0:	082010bc 	xorhi	zero,at,32834
 8200fd4:	082010bc 	xorhi	zero,at,32834
 8200fd8:	082010bc 	xorhi	zero,at,32834
 8200fdc:	082010bc 	xorhi	zero,at,32834
 8200fe0:	082010bc 	xorhi	zero,at,32834
 8200fe4:	082010bc 	xorhi	zero,at,32834
 8200fe8:	082010bc 	xorhi	zero,at,32834
 8200fec:	08201050 	cmplti	zero,at,-32703
      case CMD_LEDS_BIT_0_TOGGLE:
         led_bit_toggle(BIT_0);
 8200ff0:	01000044 	movi	r4,1
 8200ff4:	8200d980 	call	8200d98 <led_bit_toggle>
         break;
 8200ff8:	00003106 	br	82010c0 <LEDManagementTask+0x1d0>
      case CMD_LEDS_BIT_1_TOGGLE:
         led_bit_toggle(BIT_1);
 8200ffc:	01000084 	movi	r4,2
 8201000:	8200d980 	call	8200d98 <led_bit_toggle>
         break;   
 8201004:	00002e06 	br	82010c0 <LEDManagementTask+0x1d0>
      case CMD_LEDS_BIT_2_TOGGLE:
         led_bit_toggle(BIT_2);
 8201008:	01000104 	movi	r4,4
 820100c:	8200d980 	call	8200d98 <led_bit_toggle>
         break;
 8201010:	00002b06 	br	82010c0 <LEDManagementTask+0x1d0>
      case CMD_LEDS_BIT_3_TOGGLE:
         led_bit_toggle(BIT_3);
 8201014:	01000204 	movi	r4,8
 8201018:	8200d980 	call	8200d98 <led_bit_toggle>
         break;
 820101c:	00002806 	br	82010c0 <LEDManagementTask+0x1d0>
      case CMD_LEDS_BIT_4_TOGGLE:
         led_bit_toggle(BIT_4);
 8201020:	01000404 	movi	r4,16
 8201024:	8200d980 	call	8200d98 <led_bit_toggle>
         break;
 8201028:	00002506 	br	82010c0 <LEDManagementTask+0x1d0>
      case CMD_LEDS_BIT_5_TOGGLE:
         led_bit_toggle(BIT_5);
 820102c:	01000804 	movi	r4,32
 8201030:	8200d980 	call	8200d98 <led_bit_toggle>
         break;
 8201034:	00002206 	br	82010c0 <LEDManagementTask+0x1d0>
      case CMD_LEDS_BIT_6_TOGGLE:
         led_bit_toggle(BIT_6);
 8201038:	01001004 	movi	r4,64
 820103c:	8200d980 	call	8200d98 <led_bit_toggle>
         break;
 8201040:	00001f06 	br	82010c0 <LEDManagementTask+0x1d0>
      case CMD_LEDS_BIT_7_TOGGLE:
         led_bit_toggle(BIT_7);
 8201044:	01002004 	movi	r4,128
 8201048:	8200d980 	call	8200d98 <led_bit_toggle>
         break;
 820104c:	00001c06 	br	82010c0 <LEDManagementTask+0x1d0>
         /* The SSSLEDLightshowSem semaphore is checked by LED7SegLightshowTask 
          * each time it updates 7 segment LED displays, U8 and U9.  Grab the 
          * semaphore (pend) away from the lightshow task to toggle the lightshow off, 
          * and give up the semaphore (post) to turn the lightshow back on.  
          */
         if (SSSLEDLightshowActive == OS_FALSE)
 8201050:	e0bffd03 	ldbu	r2,-12(fp)
 8201054:	10000c1e 	bne	r2,zero,8201088 <LEDManagementTask+0x198>
         {
             error_code = OSSemPost(SSSLEDLightshowSem);
 8201058:	d0a05b17 	ldw	r2,-32404(gp)
 820105c:	1009883a 	mov	r4,r2
 8201060:	821a4a80 	call	821a4a8 <OSSemPost>
 8201064:	e0bfff05 	stb	r2,-4(fp)
             alt_uCOSIIErrorHandler(error_code, 0);
 8201068:	e0bfff03 	ldbu	r2,-4(fp)
 820106c:	10803fcc 	andi	r2,r2,255
 8201070:	000b883a 	mov	r5,zero
 8201074:	1009883a 	mov	r4,r2
 8201078:	82002480 	call	8200248 <alt_uCOSIIErrorHandler>
             SSSLEDLightshowActive = OS_TRUE;
 820107c:	00800044 	movi	r2,1
 8201080:	e0bffd05 	stb	r2,-12(fp)
         {
             OSSemPend(SSSLEDLightshowSem, 0, &error_code);
             alt_uCOSIIErrorHandler(error_code, 0); 
             SSSLEDLightshowActive = OS_FALSE;
         }     
         break;
 8201084:	00000e06 	br	82010c0 <LEDManagementTask+0x1d0>
             alt_uCOSIIErrorHandler(error_code, 0);
             SSSLEDLightshowActive = OS_TRUE;
         }
         else
         {
             OSSemPend(SSSLEDLightshowSem, 0, &error_code);
 8201088:	d0a05b17 	ldw	r2,-32404(gp)
 820108c:	e0ffff04 	addi	r3,fp,-4
 8201090:	180d883a 	mov	r6,r3
 8201094:	000b883a 	mov	r5,zero
 8201098:	1009883a 	mov	r4,r2
 820109c:	821a1300 	call	821a130 <OSSemPend>
             alt_uCOSIIErrorHandler(error_code, 0); 
 82010a0:	e0bfff03 	ldbu	r2,-4(fp)
 82010a4:	10803fcc 	andi	r2,r2,255
 82010a8:	000b883a 	mov	r5,zero
 82010ac:	1009883a 	mov	r4,r2
 82010b0:	82002480 	call	8200248 <alt_uCOSIIErrorHandler>
             SSSLEDLightshowActive = OS_FALSE;
 82010b4:	e03ffd05 	stb	zero,-12(fp)
         }     
         break;
 82010b8:	00000106 	br	82010c0 <LEDManagementTask+0x1d0>
      default:     
        /* Discard unknown LED commands. */
        break;
 82010bc:	0001883a 	nop
    } /* switch led_command */
  } /* while(1) */
 82010c0:	003f9106 	br	8200f08 <LEDManagementTask+0x18>

082010c4 <get_mac_addr>:
* Read the MAC address in a board specific way. Prompt user to enter serial 
* number to generate MAC address if failed to read from flash.
*
*/
int get_mac_addr(NET net, unsigned char mac_addr[6])
{
 82010c4:	defffb04 	addi	sp,sp,-20
 82010c8:	dfc00415 	stw	ra,16(sp)
 82010cc:	df000315 	stw	fp,12(sp)
 82010d0:	df000304 	addi	fp,sp,12
 82010d4:	e13ffe15 	stw	r4,-8(fp)
 82010d8:	e17fff15 	stw	r5,-4(fp)
    error_t error = 0;
 82010dc:	e03ffd15 	stw	zero,-12(fp)
    
    error = get_board_mac_addr(mac_addr);
 82010e0:	e13fff17 	ldw	r4,-4(fp)
 82010e4:	82016140 	call	8201614 <get_board_mac_addr>
 82010e8:	e0bffd15 	stw	r2,-12(fp)
    
    if(error)
 82010ec:	e0bffd17 	ldw	r2,-12(fp)
 82010f0:	10000326 	beq	r2,zero,8201100 <get_mac_addr+0x3c>
    {
        /* Failed read MAC address from flash, prompt user to enter serial 
           number to generate MAC address. */
        error = generate_mac_addr(mac_addr);
 82010f4:	e13fff17 	ldw	r4,-4(fp)
 82010f8:	82014d80 	call	82014d8 <generate_mac_addr>
 82010fc:	e0bffd15 	stw	r2,-12(fp)
    }
    return error;
 8201100:	e0bffd17 	ldw	r2,-12(fp)
}
 8201104:	e037883a 	mov	sp,fp
 8201108:	dfc00117 	ldw	ra,4(sp)
 820110c:	df000017 	ldw	fp,0(sp)
 8201110:	dec00204 	addi	sp,sp,8
 8201114:	f800283a 	ret

08201118 <get_ip_addr>:
int get_ip_addr(alt_iniche_dev *p_dev,
                ip_addr* ipaddr,
                ip_addr* netmask,
                ip_addr* gw,
                int* use_dhcp)
{
 8201118:	defffb04 	addi	sp,sp,-20
 820111c:	df000415 	stw	fp,16(sp)
 8201120:	df000404 	addi	fp,sp,16
 8201124:	e13ffc15 	stw	r4,-16(fp)
 8201128:	e17ffd15 	stw	r5,-12(fp)
 820112c:	e1bffe15 	stw	r6,-8(fp)
 8201130:	e1ffff15 	stw	r7,-4(fp)

    IP4_ADDR(*ipaddr, IPADDR0, IPADDR1, IPADDR2, IPADDR3);
 8201134:	e0bffd17 	ldw	r2,-12(fp)
 8201138:	10000015 	stw	zero,0(r2)
    IP4_ADDR(*gw, GWADDR0, GWADDR1, GWADDR2, GWADDR3);
 820113c:	e0bfff17 	ldw	r2,-4(fp)
 8201140:	10000015 	stw	zero,0(r2)
    IP4_ADDR(*netmask, MSKADDR0, MSKADDR1, MSKADDR2, MSKADDR3);
 8201144:	e0fffe17 	ldw	r3,-8(fp)
 8201148:	00804034 	movhi	r2,256
 820114c:	10bfffc4 	addi	r2,r2,-1
 8201150:	18800015 	stw	r2,0(r3)

#ifdef DHCP_CLIENT
    *use_dhcp = 1;
 8201154:	e0800117 	ldw	r2,4(fp)
 8201158:	00c00044 	movi	r3,1
 820115c:	10c00015 	stw	r3,0(r2)
        ip4_addr4(*ipaddr));
#endif /* not DHCP_CLIENT */


    /* Non-standard API: return 1 for success */
    return 1;
 8201160:	00800044 	movi	r2,1
}
 8201164:	e037883a 	mov	sp,fp
 8201168:	df000017 	ldw	fp,0(sp)
 820116c:	dec00104 	addi	sp,sp,4
 8201170:	f800283a 	ret

08201174 <get_serial_number>:
*
* Prompt user to enter 9-digit serial number. 
*
*/
alt_u32 get_serial_number (void)
{
 8201174:	defff904 	addi	sp,sp,-28
 8201178:	dfc00615 	stw	ra,24(sp)
 820117c:	df000515 	stw	fp,20(sp)
 8201180:	df000504 	addi	fp,sp,20
    alt_u32 ser_num = 0;
 8201184:	e03ffb15 	stw	zero,-20(fp)
    char serial_number[9];
    int i = 0;
 8201188:	e03ffc15 	stw	zero,-16(fp)
    
    while(!ser_num)
 820118c:	00006006 	br	8201310 <get_serial_number+0x19c>
    {
        printf("Please enter your 9-digit serial number. This is printed on a \n");
 8201190:	01020974 	movhi	r4,2085
 8201194:	2132c404 	addi	r4,r4,-13552
 8201198:	82036800 	call	8203680 <puts>
        printf("label under your Nios dev. board. The first 3 digits of the \n");
 820119c:	01020974 	movhi	r4,2085
 82011a0:	2132d404 	addi	r4,r4,-13488
 82011a4:	82036800 	call	8203680 <puts>
        printf("label are ASJ and the serial number follows this.\n -->");
 82011a8:	01020974 	movhi	r4,2085
 82011ac:	2132e404 	addi	r4,r4,-13424
 82011b0:	82033fc0 	call	82033fc <printf>
        
        for(i=0; i<9; i++)
 82011b4:	e03ffc15 	stw	zero,-16(fp)
 82011b8:	00002606 	br	8201254 <get_serial_number+0xe0>
        {
            serial_number[i] = getchar();
 82011bc:	d0a00217 	ldw	r2,-32760(gp)
 82011c0:	10800117 	ldw	r2,4(r2)
 82011c4:	1009883a 	mov	r4,r2
 82011c8:	8202ee40 	call	8202ee4 <getc>
 82011cc:	1009883a 	mov	r4,r2
 82011d0:	e0fffd04 	addi	r3,fp,-12
 82011d4:	e0bffc17 	ldw	r2,-16(fp)
 82011d8:	1885883a 	add	r2,r3,r2
 82011dc:	11000005 	stb	r4,0(r2)
            putchar(serial_number[i]);
 82011e0:	e0fffd04 	addi	r3,fp,-12
 82011e4:	e0bffc17 	ldw	r2,-16(fp)
 82011e8:	1885883a 	add	r2,r3,r2
 82011ec:	10800003 	ldbu	r2,0(r2)
 82011f0:	10c03fcc 	andi	r3,r2,255
 82011f4:	18c0201c 	xori	r3,r3,128
 82011f8:	18ffe004 	addi	r3,r3,-128
 82011fc:	d0a00217 	ldw	r2,-32760(gp)
 8201200:	10800217 	ldw	r2,8(r2)
 8201204:	100b883a 	mov	r5,r2
 8201208:	1809883a 	mov	r4,r3
 820120c:	82034d80 	call	82034d8 <putc>
            
            /* Handle backspaces.  How civilized. */
            if ((serial_number[i] == 0x08) && (i >= 0)) 
 8201210:	e0fffd04 	addi	r3,fp,-12
 8201214:	e0bffc17 	ldw	r2,-16(fp)
 8201218:	1885883a 	add	r2,r3,r2
 820121c:	10800003 	ldbu	r2,0(r2)
 8201220:	10803fcc 	andi	r2,r2,255
 8201224:	1080201c 	xori	r2,r2,128
 8201228:	10bfe004 	addi	r2,r2,-128
 820122c:	10800218 	cmpnei	r2,r2,8
 8201230:	1000051e 	bne	r2,zero,8201248 <get_serial_number+0xd4>
 8201234:	e0bffc17 	ldw	r2,-16(fp)
 8201238:	10000316 	blt	r2,zero,8201248 <get_serial_number+0xd4>
            {
                i--;
 820123c:	e0bffc17 	ldw	r2,-16(fp)
 8201240:	10bfffc4 	addi	r2,r2,-1
 8201244:	e0bffc15 	stw	r2,-16(fp)
    {
        printf("Please enter your 9-digit serial number. This is printed on a \n");
        printf("label under your Nios dev. board. The first 3 digits of the \n");
        printf("label are ASJ and the serial number follows this.\n -->");
        
        for(i=0; i<9; i++)
 8201248:	e0bffc17 	ldw	r2,-16(fp)
 820124c:	10800044 	addi	r2,r2,1
 8201250:	e0bffc15 	stw	r2,-16(fp)
 8201254:	e0bffc17 	ldw	r2,-16(fp)
 8201258:	10800250 	cmplti	r2,r2,9
 820125c:	103fd71e 	bne	r2,zero,82011bc <get_serial_number+0x48>
            if ((serial_number[i] == 0x08) && (i >= 0)) 
            {
                i--;
            }
        }
        printf("\n");
 8201260:	01000284 	movi	r4,10
 8201264:	82035a80 	call	82035a8 <putchar>
                
        for(i=0; i<9; i++)
 8201268:	e03ffc15 	stw	zero,-16(fp)
 820126c:	00002506 	br	8201304 <get_serial_number+0x190>
        {
            if (isdigit(serial_number[i]))
 8201270:	d0e00017 	ldw	r3,-32768(gp)
 8201274:	e13ffd04 	addi	r4,fp,-12
 8201278:	e0bffc17 	ldw	r2,-16(fp)
 820127c:	2085883a 	add	r2,r4,r2
 8201280:	10800003 	ldbu	r2,0(r2)
 8201284:	10803fcc 	andi	r2,r2,255
 8201288:	1080201c 	xori	r2,r2,128
 820128c:	10bfe004 	addi	r2,r2,-128
 8201290:	10800044 	addi	r2,r2,1
 8201294:	1885883a 	add	r2,r3,r2
 8201298:	10800003 	ldbu	r2,0(r2)
 820129c:	10803fcc 	andi	r2,r2,255
 82012a0:	1080010c 	andi	r2,r2,4
 82012a4:	10000f26 	beq	r2,zero,82012e4 <get_serial_number+0x170>
            {
                ser_num *= 10;
 82012a8:	e0bffb17 	ldw	r2,-20(fp)
 82012ac:	108002a4 	muli	r2,r2,10
 82012b0:	e0bffb15 	stw	r2,-20(fp)
                ser_num += serial_number[i] - '0';
 82012b4:	e0fffd04 	addi	r3,fp,-12
 82012b8:	e0bffc17 	ldw	r2,-16(fp)
 82012bc:	1885883a 	add	r2,r3,r2
 82012c0:	10800003 	ldbu	r2,0(r2)
 82012c4:	10c03fcc 	andi	r3,r2,255
 82012c8:	18c0201c 	xori	r3,r3,128
 82012cc:	18ffe004 	addi	r3,r3,-128
 82012d0:	e0bffb17 	ldw	r2,-20(fp)
 82012d4:	1885883a 	add	r2,r3,r2
 82012d8:	10bff404 	addi	r2,r2,-48
 82012dc:	e0bffb15 	stw	r2,-20(fp)
 82012e0:	00000506 	br	82012f8 <get_serial_number+0x184>
            }
            else
            {
                ser_num = 0;
 82012e4:	e03ffb15 	stw	zero,-20(fp)
                printf("Serial number only contains decimal digits and is non-zero\n");
 82012e8:	01020974 	movhi	r4,2085
 82012ec:	2132f204 	addi	r4,r4,-13368
 82012f0:	82036800 	call	8203680 <puts>
                break;
 82012f4:	00000606 	br	8201310 <get_serial_number+0x19c>
                i--;
            }
        }
        printf("\n");
                
        for(i=0; i<9; i++)
 82012f8:	e0bffc17 	ldw	r2,-16(fp)
 82012fc:	10800044 	addi	r2,r2,1
 8201300:	e0bffc15 	stw	r2,-16(fp)
 8201304:	e0bffc17 	ldw	r2,-16(fp)
 8201308:	10800250 	cmplti	r2,r2,9
 820130c:	103fd81e 	bne	r2,zero,8201270 <get_serial_number+0xfc>
{
    alt_u32 ser_num = 0;
    char serial_number[9];
    int i = 0;
    
    while(!ser_num)
 8201310:	e0bffb17 	ldw	r2,-20(fp)
 8201314:	103f9e26 	beq	r2,zero,8201190 <get_serial_number+0x1c>
                break;
            }
        }
    }
    
    return ser_num;
 8201318:	e0bffb17 	ldw	r2,-20(fp)
}
 820131c:	e037883a 	mov	sp,fp
 8201320:	dfc00117 	ldw	ra,4(sp)
 8201324:	df000017 	ldw	fp,0(sp)
 8201328:	dec00204 	addi	sp,sp,8
 820132c:	f800283a 	ret

08201330 <generate_and_store_mac_addr>:
 * sections. These fail-safe static settings are compatible with previous
 * Nios Ethernet designs, and allow the "factory-safe" design to behave 
 * as expected if the last flash sector is erased.
 */
error_t generate_and_store_mac_addr()
{
 8201330:	deffef04 	addi	sp,sp,-68
 8201334:	dfc01015 	stw	ra,64(sp)
 8201338:	df000f15 	stw	fp,60(sp)
 820133c:	df000f04 	addi	fp,sp,60
    error_t error = -1;
 8201340:	00bfffc4 	movi	r2,-1
 8201344:	e0bff115 	stw	r2,-60(fp)
    alt_u32 ser_num = 0;
 8201348:	e03ff215 	stw	zero,-56(fp)
    char flash_content[32];
    alt_flash_fd* flash_handle;
    
    printf("Can't read the MAC address from your board (this probably means\n");
 820134c:	01020974 	movhi	r4,2085
 8201350:	21330104 	addi	r4,r4,-13308
 8201354:	82036800 	call	8203680 <puts>
    printf("that your flash was erased). We will assign you a MAC address and\n");
 8201358:	01020974 	movhi	r4,2085
 820135c:	21331104 	addi	r4,r4,-13244
 8201360:	82036800 	call	8203680 <puts>
    printf("static network settings\n\n");
 8201364:	01020974 	movhi	r4,2085
 8201368:	21332204 	addi	r4,r4,-13176
 820136c:	82036800 	call	8203680 <puts>
    
    ser_num = 123456789;//get_serial_number();
 8201370:	0081d734 	movhi	r2,1884
 8201374:	10b34544 	addi	r2,r2,-13035
 8201378:	e0bff215 	stw	r2,-56(fp)
  
    if (ser_num)
 820137c:	e0bff217 	ldw	r2,-56(fp)
 8201380:	10004f26 	beq	r2,zero,82014c0 <generate_and_store_mac_addr+0x190>
    {
        /* This says the image is safe */
        flash_content[0] = 0xfe;
 8201384:	00bfff84 	movi	r2,-2
 8201388:	e0bff805 	stb	r2,-32(fp)
        flash_content[1] = 0x5a;
 820138c:	00801684 	movi	r2,90
 8201390:	e0bff845 	stb	r2,-31(fp)
        flash_content[2] = 0x0;
 8201394:	e03ff885 	stb	zero,-30(fp)
        flash_content[3] = 0x0;
 8201398:	e03ff8c5 	stb	zero,-29(fp)
        
        /* This is the Altera Vendor ID */
        flash_content[4] = 0x0;
 820139c:	e03ff905 	stb	zero,-28(fp)
        flash_content[5] = 0x7;
 82013a0:	008001c4 	movi	r2,7
 82013a4:	e0bff945 	stb	r2,-27(fp)
        flash_content[6] = 0xed;
 82013a8:	00bffb44 	movi	r2,-19
 82013ac:	e0bff985 	stb	r2,-26(fp)
        
        /* Reserverd Board identifier for erase boards */
        flash_content[7] = 0xFF;
 82013b0:	00bfffc4 	movi	r2,-1
 82013b4:	e0bff9c5 	stb	r2,-25(fp)
        flash_content[8] = (ser_num & 0xff00) >> 8;
 82013b8:	e0bff217 	ldw	r2,-56(fp)
 82013bc:	10bfc00c 	andi	r2,r2,65280
 82013c0:	1004d23a 	srli	r2,r2,8
 82013c4:	e0bffa05 	stb	r2,-24(fp)
        flash_content[9] = ser_num & 0xff;
 82013c8:	e0bff217 	ldw	r2,-56(fp)
 82013cc:	e0bffa45 	stb	r2,-23(fp)
        
        /* Then comes a 16-bit "flags" field */
        flash_content[10] = 0xFF;
 82013d0:	00bfffc4 	movi	r2,-1
 82013d4:	e0bffa85 	stb	r2,-22(fp)
        flash_content[11] = 0xFF;
 82013d8:	00bfffc4 	movi	r2,-1
 82013dc:	e0bffac5 	stb	r2,-21(fp)
        
        /* Then comes the static IP address */
        flash_content[12] = IPADDR0;
 82013e0:	e03ffb05 	stb	zero,-20(fp)
        flash_content[13] = IPADDR1;
 82013e4:	e03ffb45 	stb	zero,-19(fp)
        flash_content[14] = IPADDR2;
 82013e8:	e03ffb85 	stb	zero,-18(fp)
        flash_content[15] = IPADDR3;
 82013ec:	e03ffbc5 	stb	zero,-17(fp)
        
        /* Then comes the static nameserver address */
        flash_content[16] = 0xFF;
 82013f0:	00bfffc4 	movi	r2,-1
 82013f4:	e0bffc05 	stb	r2,-16(fp)
        flash_content[17] = 0xFF;
 82013f8:	00bfffc4 	movi	r2,-1
 82013fc:	e0bffc45 	stb	r2,-15(fp)
        flash_content[18] = 0xFF;
 8201400:	00bfffc4 	movi	r2,-1
 8201404:	e0bffc85 	stb	r2,-14(fp)
        flash_content[19] = 0xFF;
 8201408:	00bfffc4 	movi	r2,-1
 820140c:	e0bffcc5 	stb	r2,-13(fp)
        
        /* Then comes the static subnet mask */
        flash_content[20] = MSKADDR0;
 8201410:	00bfffc4 	movi	r2,-1
 8201414:	e0bffd05 	stb	r2,-12(fp)
        flash_content[21] = MSKADDR1;
 8201418:	00bfffc4 	movi	r2,-1
 820141c:	e0bffd45 	stb	r2,-11(fp)
        flash_content[22] = MSKADDR2;
 8201420:	00bfffc4 	movi	r2,-1
 8201424:	e0bffd85 	stb	r2,-10(fp)
        flash_content[23] = MSKADDR3;
 8201428:	e03ffdc5 	stb	zero,-9(fp)
        
        /* Then comes the static gateway address */
        flash_content[24] = GWADDR0;
 820142c:	e03ffe05 	stb	zero,-8(fp)
        flash_content[25] = GWADDR1;
 8201430:	e03ffe45 	stb	zero,-7(fp)
        flash_content[26] = GWADDR2;
 8201434:	e03ffe85 	stb	zero,-6(fp)
        flash_content[27] = GWADDR3;
 8201438:	e03ffec5 	stb	zero,-5(fp)
        
        /* And finally whether to use DHCP - set all bits to be safe */
        flash_content[28] = 0xFF;
 820143c:	00bfffc4 	movi	r2,-1
 8201440:	e0bfff05 	stb	r2,-4(fp)
        flash_content[29] = 0xFF;
 8201444:	00bfffc4 	movi	r2,-1
 8201448:	e0bfff45 	stb	r2,-3(fp)
        flash_content[30] = 0xFF;
 820144c:	00bfffc4 	movi	r2,-1
 8201450:	e0bfff85 	stb	r2,-2(fp)
        flash_content[31] = 0xFF;
 8201454:	00bfffc4 	movi	r2,-1
 8201458:	e0bfffc5 	stb	r2,-1(fp)
        
        /* Write the MAC address to flash */
        flash_handle = alt_flash_open_dev(EXT_FLASH_NAME);
 820145c:	01020974 	movhi	r4,2085
 8201460:	21332904 	addi	r4,r4,-13148
 8201464:	821442c0 	call	821442c <alt_flash_open_dev>
 8201468:	e0bff315 	stw	r2,-52(fp)
        if (flash_handle)
 820146c:	e0bff317 	ldw	r2,-52(fp)
 8201470:	10001326 	beq	r2,zero,82014c0 <generate_and_store_mac_addr+0x190>
        {
            alt_write_flash(flash_handle,
 8201474:	d0a05717 	ldw	r2,-32420(gp)
 8201478:	1007883a 	mov	r3,r2
 820147c:	e0bff317 	ldw	r2,-52(fp)
 8201480:	e0bff415 	stw	r2,-48(fp)
 8201484:	e0fff515 	stw	r3,-44(fp)
 8201488:	e0bff804 	addi	r2,fp,-32
 820148c:	e0bff615 	stw	r2,-40(fp)
 8201490:	00800804 	movi	r2,32
 8201494:	e0bff715 	stw	r2,-36(fp)
                                                           alt_flash_fd* fd, 
                                                           int offset, 
                                                           const void* src_addr, 
                                                           int length )
{
  return fd->write( fd, offset, src_addr, length );
 8201498:	e0bff417 	ldw	r2,-48(fp)
 820149c:	10800517 	ldw	r2,20(r2)
 82014a0:	e1fff717 	ldw	r7,-36(fp)
 82014a4:	e1bff617 	ldw	r6,-40(fp)
 82014a8:	e17ff517 	ldw	r5,-44(fp)
 82014ac:	e13ff417 	ldw	r4,-48(fp)
 82014b0:	103ee83a 	callr	r2
                            last_flash_sector_offset,
                            flash_content,
                            32);
            alt_flash_close_dev(flash_handle);
 82014b4:	e13ff317 	ldw	r4,-52(fp)
 82014b8:	82144940 	call	8214494 <alt_flash_close_dev>
            error = 0;
 82014bc:	e03ff115 	stw	zero,-60(fp)
        }
    }

    return error;    
 82014c0:	e0bff117 	ldw	r2,-60(fp)
}
 82014c4:	e037883a 	mov	sp,fp
 82014c8:	dfc00117 	ldw	ra,4(sp)
 82014cc:	df000017 	ldw	fp,0(sp)
 82014d0:	dec00204 	addi	sp,sp,8
 82014d4:	f800283a 	ret

082014d8 <generate_mac_addr>:
 * Development Board serial number is 040800017, the corresponding ethernet 
 * number generated will be 00:07:ED:FF:8F:11.
 * 
 */
error_t generate_mac_addr(unsigned char mac_addr[6])
{
 82014d8:	defff804 	addi	sp,sp,-32
 82014dc:	dfc00715 	stw	ra,28(sp)
 82014e0:	df000615 	stw	fp,24(sp)
 82014e4:	df000604 	addi	fp,sp,24
 82014e8:	e13fff15 	stw	r4,-4(fp)
    error_t error = -1;
 82014ec:	00bfffc4 	movi	r2,-1
 82014f0:	e0bffd15 	stw	r2,-12(fp)
    alt_u32 ser_num = 0;
 82014f4:	e03ffe15 	stw	zero,-8(fp)
    
    printf("\nCan't read the MAC address from your board. We will assign you\n");
 82014f8:	01020974 	movhi	r4,2085
 82014fc:	21332d04 	addi	r4,r4,-13132
 8201500:	82036800 	call	8203680 <puts>
    printf("a MAC address.\n\n");
 8201504:	01020974 	movhi	r4,2085
 8201508:	21333d04 	addi	r4,r4,-13068
 820150c:	82036800 	call	8203680 <puts>
    
    ser_num = 123456789;//get_serial_number();
 8201510:	0081d734 	movhi	r2,1884
 8201514:	10b34544 	addi	r2,r2,-13035
 8201518:	e0bffe15 	stw	r2,-8(fp)
  
    if (ser_num)
 820151c:	e0bffe17 	ldw	r2,-8(fp)
 8201520:	10003626 	beq	r2,zero,82015fc <generate_mac_addr+0x124>
    {
        /* This is the Altera Vendor ID */
        mac_addr[0] = 0x0;
 8201524:	e0bfff17 	ldw	r2,-4(fp)
 8201528:	10000005 	stb	zero,0(r2)
        mac_addr[1] = 0x7;
 820152c:	e0bfff17 	ldw	r2,-4(fp)
 8201530:	10800044 	addi	r2,r2,1
 8201534:	00c001c4 	movi	r3,7
 8201538:	10c00005 	stb	r3,0(r2)
        mac_addr[2] = 0xed;
 820153c:	e0bfff17 	ldw	r2,-4(fp)
 8201540:	10800084 	addi	r2,r2,2
 8201544:	00fffb44 	movi	r3,-19
 8201548:	10c00005 	stb	r3,0(r2)
        
        /* Reserverd Board identifier */
        mac_addr[3] = 0xFF;
 820154c:	e0bfff17 	ldw	r2,-4(fp)
 8201550:	108000c4 	addi	r2,r2,3
 8201554:	00ffffc4 	movi	r3,-1
 8201558:	10c00005 	stb	r3,0(r2)
        mac_addr[4] = (ser_num & 0xff00) >> 8;
 820155c:	e0bfff17 	ldw	r2,-4(fp)
 8201560:	10800104 	addi	r2,r2,4
 8201564:	e0fffe17 	ldw	r3,-8(fp)
 8201568:	18ffc00c 	andi	r3,r3,65280
 820156c:	1806d23a 	srli	r3,r3,8
 8201570:	10c00005 	stb	r3,0(r2)
        mac_addr[5] = ser_num & 0xff;
 8201574:	e0bfff17 	ldw	r2,-4(fp)
 8201578:	10800144 	addi	r2,r2,5
 820157c:	e0fffe17 	ldw	r3,-8(fp)
 8201580:	10c00005 	stb	r3,0(r2)
        
        printf("Your Ethernet MAC address is %02x:%02x:%02x:%02x:%02x:%02x\n", 
            mac_addr[0],
 8201584:	e0bfff17 	ldw	r2,-4(fp)
 8201588:	10800003 	ldbu	r2,0(r2)
        /* Reserverd Board identifier */
        mac_addr[3] = 0xFF;
        mac_addr[4] = (ser_num & 0xff00) >> 8;
        mac_addr[5] = ser_num & 0xff;
        
        printf("Your Ethernet MAC address is %02x:%02x:%02x:%02x:%02x:%02x\n", 
 820158c:	11403fcc 	andi	r5,r2,255
            mac_addr[0],
            mac_addr[1],
 8201590:	e0bfff17 	ldw	r2,-4(fp)
 8201594:	10800044 	addi	r2,r2,1
 8201598:	10800003 	ldbu	r2,0(r2)
        /* Reserverd Board identifier */
        mac_addr[3] = 0xFF;
        mac_addr[4] = (ser_num & 0xff00) >> 8;
        mac_addr[5] = ser_num & 0xff;
        
        printf("Your Ethernet MAC address is %02x:%02x:%02x:%02x:%02x:%02x\n", 
 820159c:	11803fcc 	andi	r6,r2,255
            mac_addr[0],
            mac_addr[1],
            mac_addr[2],
 82015a0:	e0bfff17 	ldw	r2,-4(fp)
 82015a4:	10800084 	addi	r2,r2,2
 82015a8:	10800003 	ldbu	r2,0(r2)
        /* Reserverd Board identifier */
        mac_addr[3] = 0xFF;
        mac_addr[4] = (ser_num & 0xff00) >> 8;
        mac_addr[5] = ser_num & 0xff;
        
        printf("Your Ethernet MAC address is %02x:%02x:%02x:%02x:%02x:%02x\n", 
 82015ac:	11c03fcc 	andi	r7,r2,255
            mac_addr[0],
            mac_addr[1],
            mac_addr[2],
            mac_addr[3],
 82015b0:	e0bfff17 	ldw	r2,-4(fp)
 82015b4:	108000c4 	addi	r2,r2,3
 82015b8:	10800003 	ldbu	r2,0(r2)
        /* Reserverd Board identifier */
        mac_addr[3] = 0xFF;
        mac_addr[4] = (ser_num & 0xff00) >> 8;
        mac_addr[5] = ser_num & 0xff;
        
        printf("Your Ethernet MAC address is %02x:%02x:%02x:%02x:%02x:%02x\n", 
 82015bc:	10803fcc 	andi	r2,r2,255
            mac_addr[0],
            mac_addr[1],
            mac_addr[2],
            mac_addr[3],
            mac_addr[4],
 82015c0:	e0ffff17 	ldw	r3,-4(fp)
 82015c4:	18c00104 	addi	r3,r3,4
 82015c8:	18c00003 	ldbu	r3,0(r3)
        /* Reserverd Board identifier */
        mac_addr[3] = 0xFF;
        mac_addr[4] = (ser_num & 0xff00) >> 8;
        mac_addr[5] = ser_num & 0xff;
        
        printf("Your Ethernet MAC address is %02x:%02x:%02x:%02x:%02x:%02x\n", 
 82015cc:	18c03fcc 	andi	r3,r3,255
            mac_addr[0],
            mac_addr[1],
            mac_addr[2],
            mac_addr[3],
            mac_addr[4],
            mac_addr[5]);
 82015d0:	e13fff17 	ldw	r4,-4(fp)
 82015d4:	21000144 	addi	r4,r4,5
 82015d8:	21000003 	ldbu	r4,0(r4)
        /* Reserverd Board identifier */
        mac_addr[3] = 0xFF;
        mac_addr[4] = (ser_num & 0xff00) >> 8;
        mac_addr[5] = ser_num & 0xff;
        
        printf("Your Ethernet MAC address is %02x:%02x:%02x:%02x:%02x:%02x\n", 
 82015dc:	21003fcc 	andi	r4,r4,255
 82015e0:	d9000215 	stw	r4,8(sp)
 82015e4:	d8c00115 	stw	r3,4(sp)
 82015e8:	d8800015 	stw	r2,0(sp)
 82015ec:	01020974 	movhi	r4,2085
 82015f0:	21334104 	addi	r4,r4,-13052
 82015f4:	82033fc0 	call	82033fc <printf>
            mac_addr[2],
            mac_addr[3],
            mac_addr[4],
            mac_addr[5]);
        
        error = 0;
 82015f8:	e03ffd15 	stw	zero,-12(fp)
    }
  
    return error;    
 82015fc:	e0bffd17 	ldw	r2,-12(fp)
}
 8201600:	e037883a 	mov	sp,fp
 8201604:	dfc00117 	ldw	ra,4(sp)
 8201608:	df000017 	ldw	fp,0(sp)
 820160c:	dec00204 	addi	sp,sp,8
 8201610:	f800283a 	ret

08201614 <get_board_mac_addr>:
*
* Read the MAC address in a board specific way
*
*/
error_t get_board_mac_addr(unsigned char mac_addr[6])
{
 8201614:	defff804 	addi	sp,sp,-32
 8201618:	dfc00715 	stw	ra,28(sp)
 820161c:	df000615 	stw	fp,24(sp)
 8201620:	df000604 	addi	fp,sp,24
 8201624:	e13fff15 	stw	r4,-4(fp)
    error_t error = 0;
 8201628:	e03ffd15 	stw	zero,-12(fp)
    alt_u32 signature;
    
    /* Get the flash sector with the MAC address. */
    error = FindLastFlashSectorOffset(&last_flash_sector_offset);
 820162c:	d1205704 	addi	r4,gp,-32420
 8201630:	82017ac0 	call	82017ac <FindLastFlashSectorOffset>
 8201634:	e0bffd15 	stw	r2,-12(fp)
    if (!error)
 8201638:	e0bffd17 	ldw	r2,-12(fp)
 820163c:	1000021e 	bne	r2,zero,8201648 <get_board_mac_addr+0x34>
        last_flash_sector = EXT_FLASH_BASE + last_flash_sector_offset;
 8201640:	d0a05717 	ldw	r2,-32420(gp)
 8201644:	d0a05815 	stw	r2,-32416(gp)
     * valid network settings are present, indicated by a signature of 0x00005afe at 
     * the first address of the last flash sector.  This hex value is chosen as the 
     * signature since it looks like the english word "SAFE", meaning that it is 
     * safe to use these network address values.  
    */
    if (!error)
 8201648:	e0bffd17 	ldw	r2,-12(fp)
 820164c:	1000081e 	bne	r2,zero,8201670 <get_board_mac_addr+0x5c>
    {
        signature = IORD_32DIRECT(last_flash_sector, 0);
 8201650:	d0a05817 	ldw	r2,-32416(gp)
 8201654:	10800037 	ldwio	r2,0(r2)
 8201658:	e0bffe15 	stw	r2,-8(fp)
        if (signature != 0x00005afe)
 820165c:	e0bffe17 	ldw	r2,-8(fp)
 8201660:	1096bfa0 	cmpeqi	r2,r2,23294
 8201664:	1000021e 	bne	r2,zero,8201670 <get_board_mac_addr+0x5c>
        {
          error = generate_and_store_mac_addr();
 8201668:	82013300 	call	8201330 <generate_and_store_mac_addr>
 820166c:	e0bffd15 	stw	r2,-12(fp)
        }
    }
  
    if (!error)
 8201670:	e0bffd17 	ldw	r2,-12(fp)
 8201674:	1000471e 	bne	r2,zero,8201794 <get_board_mac_addr+0x180>
    {
        mac_addr[0] = IORD_8DIRECT(last_flash_sector, 4);
 8201678:	d0a05817 	ldw	r2,-32416(gp)
 820167c:	10800104 	addi	r2,r2,4
 8201680:	10800023 	ldbuio	r2,0(r2)
 8201684:	10803fcc 	andi	r2,r2,255
 8201688:	1007883a 	mov	r3,r2
 820168c:	e0bfff17 	ldw	r2,-4(fp)
 8201690:	10c00005 	stb	r3,0(r2)
        mac_addr[1] = IORD_8DIRECT(last_flash_sector, 5);
 8201694:	e0bfff17 	ldw	r2,-4(fp)
 8201698:	10800044 	addi	r2,r2,1
 820169c:	d0e05817 	ldw	r3,-32416(gp)
 82016a0:	18c00144 	addi	r3,r3,5
 82016a4:	18c00023 	ldbuio	r3,0(r3)
 82016a8:	18c03fcc 	andi	r3,r3,255
 82016ac:	10c00005 	stb	r3,0(r2)
        mac_addr[2] = IORD_8DIRECT(last_flash_sector, 6);
 82016b0:	e0bfff17 	ldw	r2,-4(fp)
 82016b4:	10800084 	addi	r2,r2,2
 82016b8:	d0e05817 	ldw	r3,-32416(gp)
 82016bc:	18c00184 	addi	r3,r3,6
 82016c0:	18c00023 	ldbuio	r3,0(r3)
 82016c4:	18c03fcc 	andi	r3,r3,255
 82016c8:	10c00005 	stb	r3,0(r2)
        mac_addr[3] = IORD_8DIRECT(last_flash_sector, 7);
 82016cc:	e0bfff17 	ldw	r2,-4(fp)
 82016d0:	108000c4 	addi	r2,r2,3
 82016d4:	d0e05817 	ldw	r3,-32416(gp)
 82016d8:	18c001c4 	addi	r3,r3,7
 82016dc:	18c00023 	ldbuio	r3,0(r3)
 82016e0:	18c03fcc 	andi	r3,r3,255
 82016e4:	10c00005 	stb	r3,0(r2)
        mac_addr[4] = IORD_8DIRECT(last_flash_sector, 8);
 82016e8:	e0bfff17 	ldw	r2,-4(fp)
 82016ec:	10800104 	addi	r2,r2,4
 82016f0:	d0e05817 	ldw	r3,-32416(gp)
 82016f4:	18c00204 	addi	r3,r3,8
 82016f8:	18c00023 	ldbuio	r3,0(r3)
 82016fc:	18c03fcc 	andi	r3,r3,255
 8201700:	10c00005 	stb	r3,0(r2)
        mac_addr[5] = IORD_8DIRECT(last_flash_sector, 9);
 8201704:	e0bfff17 	ldw	r2,-4(fp)
 8201708:	10800144 	addi	r2,r2,5
 820170c:	d0e05817 	ldw	r3,-32416(gp)
 8201710:	18c00244 	addi	r3,r3,9
 8201714:	18c00023 	ldbuio	r3,0(r3)
 8201718:	18c03fcc 	andi	r3,r3,255
 820171c:	10c00005 	stb	r3,0(r2)
    
        printf("Your Ethernet MAC address is %02x:%02x:%02x:%02x:%02x:%02x\n", 
            mac_addr[0],
 8201720:	e0bfff17 	ldw	r2,-4(fp)
 8201724:	10800003 	ldbu	r2,0(r2)
        mac_addr[2] = IORD_8DIRECT(last_flash_sector, 6);
        mac_addr[3] = IORD_8DIRECT(last_flash_sector, 7);
        mac_addr[4] = IORD_8DIRECT(last_flash_sector, 8);
        mac_addr[5] = IORD_8DIRECT(last_flash_sector, 9);
    
        printf("Your Ethernet MAC address is %02x:%02x:%02x:%02x:%02x:%02x\n", 
 8201728:	11403fcc 	andi	r5,r2,255
            mac_addr[0],
            mac_addr[1],
 820172c:	e0bfff17 	ldw	r2,-4(fp)
 8201730:	10800044 	addi	r2,r2,1
 8201734:	10800003 	ldbu	r2,0(r2)
        mac_addr[2] = IORD_8DIRECT(last_flash_sector, 6);
        mac_addr[3] = IORD_8DIRECT(last_flash_sector, 7);
        mac_addr[4] = IORD_8DIRECT(last_flash_sector, 8);
        mac_addr[5] = IORD_8DIRECT(last_flash_sector, 9);
    
        printf("Your Ethernet MAC address is %02x:%02x:%02x:%02x:%02x:%02x\n", 
 8201738:	11803fcc 	andi	r6,r2,255
            mac_addr[0],
            mac_addr[1],
            mac_addr[2],
 820173c:	e0bfff17 	ldw	r2,-4(fp)
 8201740:	10800084 	addi	r2,r2,2
 8201744:	10800003 	ldbu	r2,0(r2)
        mac_addr[2] = IORD_8DIRECT(last_flash_sector, 6);
        mac_addr[3] = IORD_8DIRECT(last_flash_sector, 7);
        mac_addr[4] = IORD_8DIRECT(last_flash_sector, 8);
        mac_addr[5] = IORD_8DIRECT(last_flash_sector, 9);
    
        printf("Your Ethernet MAC address is %02x:%02x:%02x:%02x:%02x:%02x\n", 
 8201748:	11c03fcc 	andi	r7,r2,255
            mac_addr[0],
            mac_addr[1],
            mac_addr[2],
            mac_addr[3],
 820174c:	e0bfff17 	ldw	r2,-4(fp)
 8201750:	108000c4 	addi	r2,r2,3
 8201754:	10800003 	ldbu	r2,0(r2)
        mac_addr[2] = IORD_8DIRECT(last_flash_sector, 6);
        mac_addr[3] = IORD_8DIRECT(last_flash_sector, 7);
        mac_addr[4] = IORD_8DIRECT(last_flash_sector, 8);
        mac_addr[5] = IORD_8DIRECT(last_flash_sector, 9);
    
        printf("Your Ethernet MAC address is %02x:%02x:%02x:%02x:%02x:%02x\n", 
 8201758:	10803fcc 	andi	r2,r2,255
            mac_addr[0],
            mac_addr[1],
            mac_addr[2],
            mac_addr[3],
            mac_addr[4],
 820175c:	e0ffff17 	ldw	r3,-4(fp)
 8201760:	18c00104 	addi	r3,r3,4
 8201764:	18c00003 	ldbu	r3,0(r3)
        mac_addr[2] = IORD_8DIRECT(last_flash_sector, 6);
        mac_addr[3] = IORD_8DIRECT(last_flash_sector, 7);
        mac_addr[4] = IORD_8DIRECT(last_flash_sector, 8);
        mac_addr[5] = IORD_8DIRECT(last_flash_sector, 9);
    
        printf("Your Ethernet MAC address is %02x:%02x:%02x:%02x:%02x:%02x\n", 
 8201768:	18c03fcc 	andi	r3,r3,255
            mac_addr[0],
            mac_addr[1],
            mac_addr[2],
            mac_addr[3],
            mac_addr[4],
            mac_addr[5]);
 820176c:	e13fff17 	ldw	r4,-4(fp)
 8201770:	21000144 	addi	r4,r4,5
 8201774:	21000003 	ldbu	r4,0(r4)
        mac_addr[2] = IORD_8DIRECT(last_flash_sector, 6);
        mac_addr[3] = IORD_8DIRECT(last_flash_sector, 7);
        mac_addr[4] = IORD_8DIRECT(last_flash_sector, 8);
        mac_addr[5] = IORD_8DIRECT(last_flash_sector, 9);
    
        printf("Your Ethernet MAC address is %02x:%02x:%02x:%02x:%02x:%02x\n", 
 8201778:	21003fcc 	andi	r4,r4,255
 820177c:	d9000215 	stw	r4,8(sp)
 8201780:	d8c00115 	stw	r3,4(sp)
 8201784:	d8800015 	stw	r2,0(sp)
 8201788:	01020974 	movhi	r4,2085
 820178c:	21334104 	addi	r4,r4,-13052
 8201790:	82033fc0 	call	82033fc <printf>
            mac_addr[4],
            mac_addr[5]);
    
    }
    
    return error;
 8201794:	e0bffd17 	ldw	r2,-12(fp)
}
 8201798:	e037883a 	mov	sp,fp
 820179c:	dfc00117 	ldw	ra,4(sp)
 82017a0:	df000017 	ldw	fp,0(sp)
 82017a4:	dec00204 	addi	sp,sp,8
 82017a8:	f800283a 	ret

082017ac <FindLastFlashSectorOffset>:
 * in pLastFlashSectorOffset.
 */

int FindLastFlashSectorOffset(
    alt_u32                     *pLastFlashSectorOffset)
{
 82017ac:	defff304 	addi	sp,sp,-52
 82017b0:	dfc00c15 	stw	ra,48(sp)
 82017b4:	df000b15 	stw	fp,44(sp)
 82017b8:	df000b04 	addi	fp,sp,44
 82017bc:	e13fff15 	stw	r4,-4(fp)
    flash_region                *regions;
    int                         numRegions;
    flash_region                *pLastRegion;
    int                         lastFlashSectorOffset;
    int                         n;
    int                         error = 0;
 82017c0:	e03ff815 	stw	zero,-32(fp)

    /* Open the flash device. */
    fd = alt_flash_open_dev(EXT_FLASH_NAME);
 82017c4:	01020974 	movhi	r4,2085
 82017c8:	21332904 	addi	r4,r4,-13148
 82017cc:	821442c0 	call	821442c <alt_flash_open_dev>
 82017d0:	e0bff915 	stw	r2,-28(fp)
    if (fd <= 0)
 82017d4:	e0bff917 	ldw	r2,-28(fp)
 82017d8:	1000021e 	bne	r2,zero,82017e4 <FindLastFlashSectorOffset+0x38>
        error = -1;
 82017dc:	00bfffc4 	movi	r2,-1
 82017e0:	e0bff815 	stw	r2,-32(fp)

    /* Get the flash info. */
    if (!error)
 82017e4:	e0bff817 	ldw	r2,-32(fp)
 82017e8:	10000d1e 	bne	r2,zero,8201820 <FindLastFlashSectorOffset+0x74>
 82017ec:	e0bff917 	ldw	r2,-28(fp)
 82017f0:	e0bffa15 	stw	r2,-24(fp)
 82017f4:	e0bffd04 	addi	r2,fp,-12
 82017f8:	e0bffb15 	stw	r2,-20(fp)
 82017fc:	e0bffe04 	addi	r2,fp,-8
 8201800:	e0bffc15 	stw	r2,-16(fp)
 */
static __inline__ int __attribute__ ((always_inline)) alt_get_flash_info( 
                                      alt_flash_fd* fd, flash_region** info, 
                                      int* number_of_regions)
{
  return fd->get_info( fd, info, number_of_regions);
 8201804:	e0bffa17 	ldw	r2,-24(fp)
 8201808:	10800717 	ldw	r2,28(r2)
 820180c:	e1bffc17 	ldw	r6,-16(fp)
 8201810:	e17ffb17 	ldw	r5,-20(fp)
 8201814:	e13ffa17 	ldw	r4,-24(fp)
 8201818:	103ee83a 	callr	r2
        error = alt_get_flash_info(fd, &regions, &numRegions);
 820181c:	e0bff815 	stw	r2,-32(fp)

    /* Find the last flash sector. */
    if (!error)
 8201820:	e0bff817 	ldw	r2,-32(fp)
 8201824:	1000211e 	bne	r2,zero,82018ac <FindLastFlashSectorOffset+0x100>
    {
        pLastRegion = &(regions[0]);
 8201828:	e0bffd17 	ldw	r2,-12(fp)
 820182c:	e0bff515 	stw	r2,-44(fp)
        for (n = 1; n < numRegions; n++)
 8201830:	00800044 	movi	r2,1
 8201834:	e0bff715 	stw	r2,-36(fp)
 8201838:	00001006 	br	820187c <FindLastFlashSectorOffset+0xd0>
        {
            if (regions[n].offset > pLastRegion->offset)
 820183c:	e0fffd17 	ldw	r3,-12(fp)
 8201840:	e0bff717 	ldw	r2,-36(fp)
 8201844:	1004913a 	slli	r2,r2,4
 8201848:	1885883a 	add	r2,r3,r2
 820184c:	10800017 	ldw	r2,0(r2)
 8201850:	e0fff517 	ldw	r3,-44(fp)
 8201854:	18c00017 	ldw	r3,0(r3)
 8201858:	1880050e 	bge	r3,r2,8201870 <FindLastFlashSectorOffset+0xc4>
                pLastRegion = &(regions[n]);
 820185c:	e0fffd17 	ldw	r3,-12(fp)
 8201860:	e0bff717 	ldw	r2,-36(fp)
 8201864:	1004913a 	slli	r2,r2,4
 8201868:	1885883a 	add	r2,r3,r2
 820186c:	e0bff515 	stw	r2,-44(fp)

    /* Find the last flash sector. */
    if (!error)
    {
        pLastRegion = &(regions[0]);
        for (n = 1; n < numRegions; n++)
 8201870:	e0bff717 	ldw	r2,-36(fp)
 8201874:	10800044 	addi	r2,r2,1
 8201878:	e0bff715 	stw	r2,-36(fp)
 820187c:	e0bffe17 	ldw	r2,-8(fp)
 8201880:	e0fff717 	ldw	r3,-36(fp)
 8201884:	18bfed16 	blt	r3,r2,820183c <FindLastFlashSectorOffset+0x90>
        {
            if (regions[n].offset > pLastRegion->offset)
                pLastRegion = &(regions[n]);
        }
        lastFlashSectorOffset =   pLastRegion->offset
 8201888:	e0bff517 	ldw	r2,-44(fp)
 820188c:	10c00017 	ldw	r3,0(r2)
                                + pLastRegion->region_size
 8201890:	e0bff517 	ldw	r2,-44(fp)
 8201894:	10800117 	ldw	r2,4(r2)
 8201898:	1887883a 	add	r3,r3,r2
                                - pLastRegion->block_size;
 820189c:	e0bff517 	ldw	r2,-44(fp)
 82018a0:	10800317 	ldw	r2,12(r2)
        for (n = 1; n < numRegions; n++)
        {
            if (regions[n].offset > pLastRegion->offset)
                pLastRegion = &(regions[n]);
        }
        lastFlashSectorOffset =   pLastRegion->offset
 82018a4:	1885c83a 	sub	r2,r3,r2
 82018a8:	e0bff615 	stw	r2,-40(fp)
                                + pLastRegion->region_size
                                - pLastRegion->block_size;
    }

    /* Return results. */
    if (!error)
 82018ac:	e0bff817 	ldw	r2,-32(fp)
 82018b0:	1000031e 	bne	r2,zero,82018c0 <FindLastFlashSectorOffset+0x114>
        *pLastFlashSectorOffset = lastFlashSectorOffset;
 82018b4:	e0fff617 	ldw	r3,-40(fp)
 82018b8:	e0bfff17 	ldw	r2,-4(fp)
 82018bc:	10c00015 	stw	r3,0(r2)

    return (error);
 82018c0:	e0bff817 	ldw	r2,-32(fp)
}
 82018c4:	e037883a 	mov	sp,fp
 82018c8:	dfc00117 	ldw	ra,4(sp)
 82018cc:	df000017 	ldw	fp,0(sp)
 82018d0:	dec00204 	addi	sp,sp,8
 82018d4:	f800283a 	ret

082018d8 <SSSCreateOSDataStructs>:
/*
 * Create our MicroC/OS-II resources. All of the resources beginning with 
 * "SSS" are declared in this file, and created in this function.
 */
void SSSCreateOSDataStructs(void)
{
 82018d8:	defffd04 	addi	sp,sp,-12
 82018dc:	dfc00215 	stw	ra,8(sp)
 82018e0:	df000115 	stw	fp,4(sp)
 82018e4:	df000104 	addi	fp,sp,4
  /*
  * Create the resource for our MicroC/OS-II Queue for sending commands 
  * received on the TCP/IP socket from the SSSSimpleSocketServerTask()
  * to the LEDManagementTask().
  */
  SSSLEDCommandQ = OSQCreate(&SSSLEDCommandQTbl[0], SSS_LED_COMMAND_Q_SIZE);
 82018e8:	01400784 	movi	r5,30
 82018ec:	010209b4 	movhi	r4,2086
 82018f0:	21223904 	addi	r4,r4,-30492
 82018f4:	8218da40 	call	8218da4 <OSQCreate>
 82018f8:	d0a05a15 	stw	r2,-32408(gp)
  if (!SSSLEDCommandQ)
 82018fc:	d0a05a17 	ldw	r2,-32408(gp)
 8201900:	1000041e 	bne	r2,zero,8201914 <SSSCreateOSDataStructs+0x3c>
  {
     alt_uCOSIIErrorHandler(EXPANDED_DIAGNOSIS_CODE, 
 8201904:	01420974 	movhi	r5,2085
 8201908:	29735004 	addi	r5,r5,-12992
 820190c:	01003fc4 	movi	r4,255
 8201910:	82002480 	call	8200248 <alt_uCOSIIErrorHandler>
  * toggle the lightshow off, and gives up the semaphore to turn the lightshow
  * back on.  The LEDTask does this in response to the CMD_LEDS_LIGHTSHOW
  * command sent from the SSSSimpleSocketServerTask when the user sends the 
  * toggle lightshow command over the TCPIP socket.
  */
  SSSLEDLightshowSem = OSSemCreate(1);
 8201914:	01000044 	movi	r4,1
 8201918:	8219e180 	call	8219e18 <OSSemCreate>
 820191c:	d0a05b15 	stw	r2,-32404(gp)
  if (!SSSLEDLightshowSem)
 8201920:	d0a05b17 	ldw	r2,-32404(gp)
 8201924:	1000041e 	bne	r2,zero,8201938 <SSSCreateOSDataStructs+0x60>
  {
     alt_uCOSIIErrorHandler(EXPANDED_DIAGNOSIS_CODE, 
 8201928:	01420974 	movhi	r5,2085
 820192c:	29735904 	addi	r5,r5,-12956
 8201930:	01003fc4 	movi	r4,255
 8201934:	82002480 	call	8200248 <alt_uCOSIIErrorHandler>
  
 /*
  * Create our MicroC/OS-II LED Event Flag.  Each flag corresponds to one of
  * the LEDs on the Nios Development board, D0 - D7. 
  */   
  SSSLEDEventFlag = OSFlagCreate(0, &error_code);
 8201938:	e17fff04 	addi	r5,fp,-4
 820193c:	0009883a 	mov	r4,zero
 8201940:	82171040 	call	8217104 <OSFlagCreate>
 8201944:	d0a05c15 	stw	r2,-32400(gp)
  if (!SSSLEDEventFlag)
 8201948:	d0a05c17 	ldw	r2,-32400(gp)
 820194c:	1000051e 	bne	r2,zero,8201964 <SSSCreateOSDataStructs+0x8c>
  {
     alt_uCOSIIErrorHandler(error_code, 0);
 8201950:	e0bfff03 	ldbu	r2,-4(fp)
 8201954:	10803fcc 	andi	r2,r2,255
 8201958:	000b883a 	mov	r5,zero
 820195c:	1009883a 	mov	r4,r2
 8201960:	82002480 	call	8200248 <alt_uCOSIIErrorHandler>
  }
}
 8201964:	0001883a 	nop
 8201968:	e037883a 	mov	sp,fp
 820196c:	dfc00117 	ldw	ra,4(sp)
 8201970:	df000017 	ldw	fp,0(sp)
 8201974:	dec00204 	addi	sp,sp,8
 8201978:	f800283a 	ret

0820197c <SSSCreateTasks>:
/* This function creates tasks used in this example which do not use sockets.
 * Tasks which use Interniche sockets must be created with TK_NEWTASK.
 */
 
void SSSCreateTasks(void)
{
 820197c:	defff804 	addi	sp,sp,-32
 8201980:	dfc00715 	stw	ra,28(sp)
 8201984:	df000615 	stw	fp,24(sp)
 8201988:	df000604 	addi	fp,sp,24
   INT8U error_code;
  
   error_code = OSTaskCreateExt(LED7SegLightshowTask,
 820198c:	d8000415 	stw	zero,16(sp)
 8201990:	d8000315 	stw	zero,12(sp)
 8201994:	00820004 	movi	r2,2048
 8201998:	d8800215 	stw	r2,8(sp)
 820199c:	00820974 	movhi	r2,2085
 82019a0:	109a3904 	addi	r2,r2,26852
 82019a4:	d8800115 	stw	r2,4(sp)
 82019a8:	00800484 	movi	r2,18
 82019ac:	d8800015 	stw	r2,0(sp)
 82019b0:	01c00484 	movi	r7,18
 82019b4:	018209b4 	movhi	r6,2086
 82019b8:	31a23804 	addi	r6,r6,-30496
 82019bc:	000b883a 	mov	r5,zero
 82019c0:	01020834 	movhi	r4,2080
 82019c4:	21039f04 	addi	r4,r4,3708
 82019c8:	821ae640 	call	821ae64 <OSTaskCreateExt>
 82019cc:	e0bfff05 	stb	r2,-4(fp)
                             LED7SegLightshowTaskStk,
                             TASK_STACKSIZE,
                             NULL,
                             0);
   
   alt_uCOSIIErrorHandler(error_code, 0);
 82019d0:	e0bfff03 	ldbu	r2,-4(fp)
 82019d4:	000b883a 	mov	r5,zero
 82019d8:	1009883a 	mov	r4,r2
 82019dc:	82002480 	call	8200248 <alt_uCOSIIErrorHandler>
  
   error_code = OSTaskCreateExt(LEDManagementTask,
 82019e0:	d8000415 	stw	zero,16(sp)
 82019e4:	d8000315 	stw	zero,12(sp)
 82019e8:	00820004 	movi	r2,2048
 82019ec:	d8800215 	stw	r2,8(sp)
 82019f0:	008209b4 	movhi	r2,2086
 82019f4:	10a25704 	addi	r2,r2,-30372
 82019f8:	d8800115 	stw	r2,4(sp)
 82019fc:	008001c4 	movi	r2,7
 8201a00:	d8800015 	stw	r2,0(sp)
 8201a04:	01c001c4 	movi	r7,7
 8201a08:	018209b4 	movhi	r6,2086
 8201a0c:	31aa5604 	addi	r6,r6,-22184
 8201a10:	000b883a 	mov	r5,zero
 8201a14:	01020834 	movhi	r4,2080
 8201a18:	2103bc04 	addi	r4,r4,3824
 8201a1c:	821ae640 	call	821ae64 <OSTaskCreateExt>
 8201a20:	e0bfff05 	stb	r2,-4(fp)
                              LEDManagementTaskStk,
                              TASK_STACKSIZE,
                              NULL,
                              0);

   alt_uCOSIIErrorHandler(error_code, 0);
 8201a24:	e0bfff03 	ldbu	r2,-4(fp)
 8201a28:	000b883a 	mov	r5,zero
 8201a2c:	1009883a 	mov	r4,r2
 8201a30:	82002480 	call	8200248 <alt_uCOSIIErrorHandler>

}
 8201a34:	0001883a 	nop
 8201a38:	e037883a 	mov	sp,fp
 8201a3c:	dfc00117 	ldw	ra,4(sp)
 8201a40:	df000017 	ldw	fp,0(sp)
 8201a44:	dec00204 	addi	sp,sp,8
 8201a48:	f800283a 	ret

08201a4c <sss_reset_connection>:
 * to a reliable initial state. Note that we set our socket (FD) number to
 * -1 to easily determine whether the connection is in a "reset, ready to go" 
 * state.
 */
void sss_reset_connection(SSSConn* conn)
{
 8201a4c:	defffd04 	addi	sp,sp,-12
 8201a50:	dfc00215 	stw	ra,8(sp)
 8201a54:	df000115 	stw	fp,4(sp)
 8201a58:	df000104 	addi	fp,sp,4
 8201a5c:	e13fff15 	stw	r4,-4(fp)
  memset(conn, 0, sizeof(SSSConn));
 8201a60:	01817c04 	movi	r6,1520
 8201a64:	000b883a 	mov	r5,zero
 8201a68:	e13fff17 	ldw	r4,-4(fp)
 8201a6c:	82032100 	call	8203210 <memset>

  conn->fd = -1;
 8201a70:	e0bfff17 	ldw	r2,-4(fp)
 8201a74:	00ffffc4 	movi	r3,-1
 8201a78:	10c00115 	stw	r3,4(r2)
  conn->state = READY;
 8201a7c:	e0bfff17 	ldw	r2,-4(fp)
 8201a80:	10000015 	stw	zero,0(r2)
  conn->rx_wr_pos = conn->rx_buffer;
 8201a84:	e0bfff17 	ldw	r2,-4(fp)
 8201a88:	10c00304 	addi	r3,r2,12
 8201a8c:	e0bfff17 	ldw	r2,-4(fp)
 8201a90:	10c17b15 	stw	r3,1516(r2)
  conn->rx_rd_pos = conn->rx_buffer;
 8201a94:	e0bfff17 	ldw	r2,-4(fp)
 8201a98:	10c00304 	addi	r3,r2,12
 8201a9c:	e0bfff17 	ldw	r2,-4(fp)
 8201aa0:	10c17a15 	stw	r3,1512(r2)
  return;
 8201aa4:	0001883a 	nop
}
 8201aa8:	e037883a 	mov	sp,fp
 8201aac:	dfc00117 	ldw	ra,4(sp)
 8201ab0:	df000017 	ldw	fp,0(sp)
 8201ab4:	dec00204 	addi	sp,sp,8
 8201ab8:	f800283a 	ret

08201abc <sss_send_menu>:
 * sss_send_menu()
 * 
 * This routine will transmit the menu out to the telent client.
 */
void sss_send_menu(SSSConn* conn)
{
 8201abc:	defe8504 	addi	sp,sp,-1516
 8201ac0:	dfc17a15 	stw	ra,1512(sp)
 8201ac4:	df017915 	stw	fp,1508(sp)
 8201ac8:	df017904 	addi	fp,sp,1508
 8201acc:	e13fff15 	stw	r4,-4(fp)
  char  tx_buf[SSS_TX_BUF_SIZE];
  char *tx_wr_pos = tx_buf;
 8201ad0:	e0be8804 	addi	r2,fp,-1504
 8201ad4:	e0be8715 	stw	r2,-1508(fp)

  tx_wr_pos += sprintf(tx_wr_pos,"=================================\n\r");
 8201ad8:	e0fe8717 	ldw	r3,-1508(fp)
 8201adc:	00820974 	movhi	r2,2085
 8201ae0:	10b36304 	addi	r2,r2,-12916
 8201ae4:	1009883a 	mov	r4,r2
 8201ae8:	00800904 	movi	r2,36
 8201aec:	100d883a 	mov	r6,r2
 8201af0:	200b883a 	mov	r5,r4
 8201af4:	1809883a 	mov	r4,r3
 8201af8:	8202f6c0 	call	8202f6c <memcpy>
 8201afc:	008008c4 	movi	r2,35
 8201b00:	1007883a 	mov	r3,r2
 8201b04:	e0be8717 	ldw	r2,-1508(fp)
 8201b08:	10c5883a 	add	r2,r2,r3
 8201b0c:	e0be8715 	stw	r2,-1508(fp)
  tx_wr_pos += sprintf(tx_wr_pos,"ADC Socket Server Menu\n\r");
 8201b10:	e0fe8717 	ldw	r3,-1508(fp)
 8201b14:	00820974 	movhi	r2,2085
 8201b18:	10b36c04 	addi	r2,r2,-12880
 8201b1c:	1009883a 	mov	r4,r2
 8201b20:	00800644 	movi	r2,25
 8201b24:	100d883a 	mov	r6,r2
 8201b28:	200b883a 	mov	r5,r4
 8201b2c:	1809883a 	mov	r4,r3
 8201b30:	8202f6c0 	call	8202f6c <memcpy>
 8201b34:	00800604 	movi	r2,24
 8201b38:	1007883a 	mov	r3,r2
 8201b3c:	e0be8717 	ldw	r2,-1508(fp)
 8201b40:	10c5883a 	add	r2,r2,r3
 8201b44:	e0be8715 	stw	r2,-1508(fp)
  tx_wr_pos += sprintf(tx_wr_pos,"=================================\n\r");
 8201b48:	e0fe8717 	ldw	r3,-1508(fp)
 8201b4c:	00820974 	movhi	r2,2085
 8201b50:	10b36304 	addi	r2,r2,-12916
 8201b54:	1009883a 	mov	r4,r2
 8201b58:	00800904 	movi	r2,36
 8201b5c:	100d883a 	mov	r6,r2
 8201b60:	200b883a 	mov	r5,r4
 8201b64:	1809883a 	mov	r4,r3
 8201b68:	8202f6c0 	call	8202f6c <memcpy>
 8201b6c:	008008c4 	movi	r2,35
 8201b70:	1007883a 	mov	r3,r2
 8201b74:	e0be8717 	ldw	r2,-1508(fp)
 8201b78:	10c5883a 	add	r2,r2,r3
 8201b7c:	e0be8715 	stw	r2,-1508(fp)
  tx_wr_pos += sprintf(tx_wr_pos,"ACQUIRE      - output most recent trigger\n\r");
 8201b80:	e0fe8717 	ldw	r3,-1508(fp)
 8201b84:	00820974 	movhi	r2,2085
 8201b88:	10b37304 	addi	r2,r2,-12852
 8201b8c:	1009883a 	mov	r4,r2
 8201b90:	00800b04 	movi	r2,44
 8201b94:	100d883a 	mov	r6,r2
 8201b98:	200b883a 	mov	r5,r4
 8201b9c:	1809883a 	mov	r4,r3
 8201ba0:	8202f6c0 	call	8202f6c <memcpy>
 8201ba4:	00800ac4 	movi	r2,43
 8201ba8:	1007883a 	mov	r3,r2
 8201bac:	e0be8717 	ldw	r2,-1508(fp)
 8201bb0:	10c5883a 	add	r2,r2,r3
 8201bb4:	e0be8715 	stw	r2,-1508(fp)
  tx_wr_pos += sprintf(tx_wr_pos,"TRIG:SLOPE:  - Set trigger slope: POS or NEG\n\r");
 8201bb8:	e0fe8717 	ldw	r3,-1508(fp)
 8201bbc:	00820974 	movhi	r2,2085
 8201bc0:	10b37e04 	addi	r2,r2,-12808
 8201bc4:	1009883a 	mov	r4,r2
 8201bc8:	00800bc4 	movi	r2,47
 8201bcc:	100d883a 	mov	r6,r2
 8201bd0:	200b883a 	mov	r5,r4
 8201bd4:	1809883a 	mov	r4,r3
 8201bd8:	8202f6c0 	call	8202f6c <memcpy>
 8201bdc:	00800b84 	movi	r2,46
 8201be0:	1007883a 	mov	r3,r2
 8201be4:	e0be8717 	ldw	r2,-1508(fp)
 8201be8:	10c5883a 	add	r2,r2,r3
 8201bec:	e0be8715 	stw	r2,-1508(fp)
  tx_wr_pos += sprintf(tx_wr_pos,"TRIG:SOURCE: - Set trigger source: SELF or EXT\n\r");
 8201bf0:	e0fe8717 	ldw	r3,-1508(fp)
 8201bf4:	00820974 	movhi	r2,2085
 8201bf8:	10b38a04 	addi	r2,r2,-12760
 8201bfc:	1009883a 	mov	r4,r2
 8201c00:	00800c44 	movi	r2,49
 8201c04:	100d883a 	mov	r6,r2
 8201c08:	200b883a 	mov	r5,r4
 8201c0c:	1809883a 	mov	r4,r3
 8201c10:	8202f6c0 	call	8202f6c <memcpy>
 8201c14:	00800c04 	movi	r2,48
 8201c18:	1007883a 	mov	r3,r2
 8201c1c:	e0be8717 	ldw	r2,-1508(fp)
 8201c20:	10c5883a 	add	r2,r2,r3
 8201c24:	e0be8715 	stw	r2,-1508(fp)
  tx_wr_pos += sprintf(tx_wr_pos,"DELAY:       - Set delay: ON or OFF\n\r");
 8201c28:	e0fe8717 	ldw	r3,-1508(fp)
 8201c2c:	00820974 	movhi	r2,2085
 8201c30:	10b39704 	addi	r2,r2,-12708
 8201c34:	1009883a 	mov	r4,r2
 8201c38:	00800984 	movi	r2,38
 8201c3c:	100d883a 	mov	r6,r2
 8201c40:	200b883a 	mov	r5,r4
 8201c44:	1809883a 	mov	r4,r3
 8201c48:	8202f6c0 	call	8202f6c <memcpy>
 8201c4c:	00800944 	movi	r2,37
 8201c50:	1007883a 	mov	r3,r2
 8201c54:	e0be8717 	ldw	r2,-1508(fp)
 8201c58:	10c5883a 	add	r2,r2,r3
 8201c5c:	e0be8715 	stw	r2,-1508(fp)
  tx_wr_pos += sprintf(tx_wr_pos,"MENU         - display this menu \n\r");
 8201c60:	e0fe8717 	ldw	r3,-1508(fp)
 8201c64:	00820974 	movhi	r2,2085
 8201c68:	10b3a104 	addi	r2,r2,-12668
 8201c6c:	1009883a 	mov	r4,r2
 8201c70:	00800904 	movi	r2,36
 8201c74:	100d883a 	mov	r6,r2
 8201c78:	200b883a 	mov	r5,r4
 8201c7c:	1809883a 	mov	r4,r3
 8201c80:	8202f6c0 	call	8202f6c <memcpy>
 8201c84:	008008c4 	movi	r2,35
 8201c88:	1007883a 	mov	r3,r2
 8201c8c:	e0be8717 	ldw	r2,-1508(fp)
 8201c90:	10c5883a 	add	r2,r2,r3
 8201c94:	e0be8715 	stw	r2,-1508(fp)
  tx_wr_pos += sprintf(tx_wr_pos,"QUIT         - quit \n\r");
 8201c98:	e0fe8717 	ldw	r3,-1508(fp)
 8201c9c:	00820974 	movhi	r2,2085
 8201ca0:	10b3aa04 	addi	r2,r2,-12632
 8201ca4:	1009883a 	mov	r4,r2
 8201ca8:	008005c4 	movi	r2,23
 8201cac:	100d883a 	mov	r6,r2
 8201cb0:	200b883a 	mov	r5,r4
 8201cb4:	1809883a 	mov	r4,r3
 8201cb8:	8202f6c0 	call	8202f6c <memcpy>
 8201cbc:	00800584 	movi	r2,22
 8201cc0:	1007883a 	mov	r3,r2
 8201cc4:	e0be8717 	ldw	r2,-1508(fp)
 8201cc8:	10c5883a 	add	r2,r2,r3
 8201ccc:	e0be8715 	stw	r2,-1508(fp)
  tx_wr_pos += sprintf(tx_wr_pos,"=================================\n\r");
 8201cd0:	e0fe8717 	ldw	r3,-1508(fp)
 8201cd4:	00820974 	movhi	r2,2085
 8201cd8:	10b36304 	addi	r2,r2,-12916
 8201cdc:	1009883a 	mov	r4,r2
 8201ce0:	00800904 	movi	r2,36
 8201ce4:	100d883a 	mov	r6,r2
 8201ce8:	200b883a 	mov	r5,r4
 8201cec:	1809883a 	mov	r4,r3
 8201cf0:	8202f6c0 	call	8202f6c <memcpy>
 8201cf4:	008008c4 	movi	r2,35
 8201cf8:	1007883a 	mov	r3,r2
 8201cfc:	e0be8717 	ldw	r2,-1508(fp)
 8201d00:	10c5883a 	add	r2,r2,r3
 8201d04:	e0be8715 	stw	r2,-1508(fp)
  tx_wr_pos += sprintf(tx_wr_pos,"Enter your choice & press return:\n\r");
 8201d08:	e0fe8717 	ldw	r3,-1508(fp)
 8201d0c:	00820974 	movhi	r2,2085
 8201d10:	10b3b004 	addi	r2,r2,-12608
 8201d14:	1009883a 	mov	r4,r2
 8201d18:	00800904 	movi	r2,36
 8201d1c:	100d883a 	mov	r6,r2
 8201d20:	200b883a 	mov	r5,r4
 8201d24:	1809883a 	mov	r4,r3
 8201d28:	8202f6c0 	call	8202f6c <memcpy>
 8201d2c:	008008c4 	movi	r2,35
 8201d30:	1007883a 	mov	r3,r2
 8201d34:	e0be8717 	ldw	r2,-1508(fp)
 8201d38:	10c5883a 	add	r2,r2,r3
 8201d3c:	e0be8715 	stw	r2,-1508(fp)

  send(conn->fd, tx_buf, tx_wr_pos - tx_buf, 0);
 8201d40:	e0bfff17 	ldw	r2,-4(fp)
 8201d44:	11000117 	ldw	r4,4(r2)
 8201d48:	e0fe8717 	ldw	r3,-1508(fp)
 8201d4c:	e0be8804 	addi	r2,fp,-1504
 8201d50:	1887c83a 	sub	r3,r3,r2
 8201d54:	e0be8804 	addi	r2,fp,-1504
 8201d58:	000f883a 	mov	r7,zero
 8201d5c:	180d883a 	mov	r6,r3
 8201d60:	100b883a 	mov	r5,r2
 8201d64:	82315cc0 	call	82315cc <t_send>
  
  return;
 8201d68:	0001883a 	nop
}
 8201d6c:	e037883a 	mov	sp,fp
 8201d70:	dfc00117 	ldw	ra,4(sp)
 8201d74:	df000017 	ldw	fp,0(sp)
 8201d78:	dec00204 	addi	sp,sp,8
 8201d7c:	f800283a 	ret

08201d80 <sss_handle_accept>:
 * reject the incoming request by immediately closing the new socket.
 * 
 * We'll also print out the client's IP address.
 */
void sss_handle_accept(int listen_socket, SSSConn* conn)
{
 8201d80:	defff604 	addi	sp,sp,-40
 8201d84:	dfc00915 	stw	ra,36(sp)
 8201d88:	df000815 	stw	fp,32(sp)
 8201d8c:	df000804 	addi	fp,sp,32
 8201d90:	e13ffe15 	stw	r4,-8(fp)
 8201d94:	e17fff15 	stw	r5,-4(fp)
  int                 socket, len;
  struct sockaddr_in  incoming_addr;

  len = sizeof(incoming_addr);
 8201d98:	00800404 	movi	r2,16
 8201d9c:	e0bff915 	stw	r2,-28(fp)

  if ((conn)->fd == -1)
 8201da0:	e0bfff17 	ldw	r2,-4(fp)
 8201da4:	10800117 	ldw	r2,4(r2)
 8201da8:	10bfffd8 	cmpnei	r2,r2,-1
 8201dac:	10001a1e 	bne	r2,zero,8201e18 <sss_handle_accept+0x98>
  {
     if((socket=accept(listen_socket,(struct sockaddr*)&incoming_addr,&len))<0)
 8201db0:	e0fff904 	addi	r3,fp,-28
 8201db4:	e0bffa04 	addi	r2,fp,-24
 8201db8:	180d883a 	mov	r6,r3
 8201dbc:	100b883a 	mov	r5,r2
 8201dc0:	e13ffe17 	ldw	r4,-8(fp)
 8201dc4:	8227ce40 	call	8227ce4 <bsd_accept>
 8201dc8:	e0bff815 	stw	r2,-32(fp)
 8201dcc:	e0bff817 	ldw	r2,-32(fp)
 8201dd0:	1000050e 	bge	r2,zero,8201de8 <sss_handle_accept+0x68>
     {
         alt_NetworkErrorHandler(EXPANDED_DIAGNOSIS_CODE,
 8201dd4:	01420974 	movhi	r5,2085
 8201dd8:	2973b904 	addi	r5,r5,-12572
 8201ddc:	01003fc4 	movi	r4,255
 8201de0:	82007ac0 	call	82007ac <alt_NetworkErrorHandler>
  {
    printf("[sss_handle_accept] rejected connection request from %s\n",
           inet_ntoa(incoming_addr.sin_addr));
  }

  return;
 8201de4:	00001306 	br	8201e34 <sss_handle_accept+0xb4>
         alt_NetworkErrorHandler(EXPANDED_DIAGNOSIS_CODE,
                                 "[sss_handle_accept] accept failed");
     }
     else
     {
        (conn)->fd = socket;
 8201de8:	e0bfff17 	ldw	r2,-4(fp)
 8201dec:	e0fff817 	ldw	r3,-32(fp)
 8201df0:	10c00115 	stw	r3,4(r2)
        sss_send_menu(conn);
 8201df4:	e13fff17 	ldw	r4,-4(fp)
 8201df8:	8201abc0 	call	8201abc <sss_send_menu>
        printf("[sss_handle_accept] accepted connection request from %s\n",
 8201dfc:	e13ffb17 	ldw	r4,-20(fp)
 8201e00:	822838c0 	call	822838c <bsd_inet_ntoa>
 8201e04:	100b883a 	mov	r5,r2
 8201e08:	01020974 	movhi	r4,2085
 8201e0c:	2133c204 	addi	r4,r4,-12536
 8201e10:	82033fc0 	call	82033fc <printf>
  {
    printf("[sss_handle_accept] rejected connection request from %s\n",
           inet_ntoa(incoming_addr.sin_addr));
  }

  return;
 8201e14:	00000706 	br	8201e34 <sss_handle_accept+0xb4>
               inet_ntoa(incoming_addr.sin_addr));
     }
  }
  else
  {
    printf("[sss_handle_accept] rejected connection request from %s\n",
 8201e18:	e13ffb17 	ldw	r4,-20(fp)
 8201e1c:	822838c0 	call	822838c <bsd_inet_ntoa>
 8201e20:	100b883a 	mov	r5,r2
 8201e24:	01020974 	movhi	r4,2085
 8201e28:	2133d104 	addi	r4,r4,-12476
 8201e2c:	82033fc0 	call	82033fc <printf>
           inet_ntoa(incoming_addr.sin_addr));
  }

  return;
 8201e30:	0001883a 	nop
}
 8201e34:	e037883a 	mov	sp,fp
 8201e38:	dfc00117 	ldw	ra,4(sp)
 8201e3c:	df000017 	ldw	fp,0(sp)
 8201e40:	dec00204 	addi	sp,sp,8
 8201e44:	f800283a 	ret

08201e48 <sss_exec_command>:
 * If the user wishes to quit, we set the "close" member of our SSSConn
 * struct, which will be looked at back in sss_handle_receive() when it 
 * comes time to see whether to close the connection or not.
 */
void sss_exec_command(SSSConn* conn)
{
 8201e48:	defb9104 	addi	sp,sp,-4540
 8201e4c:	dfc46e15 	stw	ra,4536(sp)
 8201e50:	df046d15 	stw	fp,4532(sp)
 8201e54:	df046d04 	addi	fp,sp,4532
 8201e58:	e13fff15 	stw	r4,-4(fp)
   int bytes_to_process = conn->rx_wr_pos - conn->rx_rd_pos;
 8201e5c:	e0bfff17 	ldw	r2,-4(fp)
 8201e60:	10817b17 	ldw	r2,1516(r2)
 8201e64:	1007883a 	mov	r3,r2
 8201e68:	e0bfff17 	ldw	r2,-4(fp)
 8201e6c:	10817a17 	ldw	r2,1512(r2)
 8201e70:	1885c83a 	sub	r2,r3,r2
 8201e74:	e0bb9315 	stw	r2,-4532(fp)

   char  tx_buf[SSS_TX_BUF_SIZE];
   char *tx_wr_pos = tx_buf;
 8201e78:	e0bb9a04 	addi	r2,fp,-4504
 8201e7c:	e0bb9415 	stw	r2,-4528(fp)

   char text_buf[SSS_TX_BUF_SIZE];
   char *text = text_buf;
 8201e80:	e0bd1104 	addi	r2,fp,-3004
 8201e84:	e0bb9515 	stw	r2,-4524(fp)
    * SSSSimpleSocketServerTask, since the LEDManagementTask does not 
    * have access to the stack of the SSSSimpleSocketServerTask.
    */
   static INT32U SSSCommand;
   
   SSSCommand = CMD_LEDS_BIT_0_TOGGLE;
 8201e88:	00800c04 	movi	r2,48
 8201e8c:	d0a05915 	stw	r2,-32412(gp)

   while(bytes_to_process--) {
 8201e90:	00002206 	br	8201f1c <sss_exec_command+0xd4>
      SSSCommand = tolower(*(conn->rx_rd_pos++));
 8201e94:	e0bfff17 	ldw	r2,-4(fp)
 8201e98:	10817a17 	ldw	r2,1512(r2)
 8201e9c:	11000044 	addi	r4,r2,1
 8201ea0:	e0ffff17 	ldw	r3,-4(fp)
 8201ea4:	19017a15 	stw	r4,1512(r3)
 8201ea8:	10800003 	ldbu	r2,0(r2)
 8201eac:	e0bb9885 	stb	r2,-4510(fp)
 8201eb0:	d0e00017 	ldw	r3,-32768(gp)
 8201eb4:	e0bb9883 	ldbu	r2,-4510(fp)
 8201eb8:	10800044 	addi	r2,r2,1
 8201ebc:	1885883a 	add	r2,r3,r2
 8201ec0:	10800003 	ldbu	r2,0(r2)
 8201ec4:	10803fcc 	andi	r2,r2,255
 8201ec8:	108000cc 	andi	r2,r2,3
 8201ecc:	10800058 	cmpnei	r2,r2,1
 8201ed0:	1000031e 	bne	r2,zero,8201ee0 <sss_exec_command+0x98>
 8201ed4:	e0bb9883 	ldbu	r2,-4510(fp)
 8201ed8:	10800804 	addi	r2,r2,32
 8201edc:	00000106 	br	8201ee4 <sss_exec_command+0x9c>
 8201ee0:	e0bb9883 	ldbu	r2,-4510(fp)
 8201ee4:	d0a05915 	stw	r2,-32412(gp)
	  text += sprintf(text,"%c",(char)SSSCommand);
 8201ee8:	d0a05917 	ldw	r2,-32412(gp)
 8201eec:	10803fcc 	andi	r2,r2,255
 8201ef0:	1080201c 	xori	r2,r2,128
 8201ef4:	10bfe004 	addi	r2,r2,-128
 8201ef8:	100d883a 	mov	r6,r2
 8201efc:	01420974 	movhi	r5,2085
 8201f00:	2973e004 	addi	r5,r5,-12416
 8201f04:	e13b9517 	ldw	r4,-4524(fp)
 8201f08:	82037740 	call	8203774 <sprintf>
 8201f0c:	1007883a 	mov	r3,r2
 8201f10:	e0bb9517 	ldw	r2,-4524(fp)
 8201f14:	10c5883a 	add	r2,r2,r3
 8201f18:	e0bb9515 	stw	r2,-4524(fp)
    */
   static INT32U SSSCommand;
   
   SSSCommand = CMD_LEDS_BIT_0_TOGGLE;

   while(bytes_to_process--) {
 8201f1c:	e0bb9317 	ldw	r2,-4532(fp)
 8201f20:	10ffffc4 	addi	r3,r2,-1
 8201f24:	e0fb9315 	stw	r3,-4532(fp)
 8201f28:	103fda1e 	bne	r2,zero,8201e94 <sss_exec_command+0x4c>
      SSSCommand = tolower(*(conn->rx_rd_pos++));
	  text += sprintf(text,"%c",(char)SSSCommand);
   }

   alt_u8 startValue = IORD_ALTERA_AVALON_PIO_DATA(ADC_CONTROL_BASE);
 8201f2c:	00824034 	movhi	r2,2304
 8201f30:	10801004 	addi	r2,r2,64
 8201f34:	10800037 	ldwio	r2,0(r2)
 8201f38:	e0bb98c5 	stb	r2,-4509(fp)

   alt_u8 endValue = startValue;
 8201f3c:	e0bb98c3 	ldbu	r2,-4509(fp)
 8201f40:	e0bb9605 	stb	r2,-4520(fp)

   if(strstr(text_buf, "acquire") != NULL){
 8201f44:	e0bd1104 	addi	r2,fp,-3004
 8201f48:	01420974 	movhi	r5,2085
 8201f4c:	2973e104 	addi	r5,r5,-12412
 8201f50:	1009883a 	mov	r4,r2
 8201f54:	82045080 	call	8204508 <strstr>
 8201f58:	10006b26 	beq	r2,zero,8202108 <sss_exec_command+0x2c0>
	   endValue ^= (-1 ^ endValue) & (1 << 0);
 8201f5c:	e0bb9603 	ldbu	r2,-4520(fp)
 8201f60:	1080004c 	andi	r2,r2,1
 8201f64:	1005003a 	cmpeq	r2,r2,zero
 8201f68:	1007883a 	mov	r3,r2
 8201f6c:	e0bb9603 	ldbu	r2,-4520(fp)
 8201f70:	1884f03a 	xor	r2,r3,r2
 8201f74:	e0bb9605 	stb	r2,-4520(fp)


	   IOWR_ALTERA_AVALON_PIO_DATA(ADC_CONTROL_BASE, endValue);
 8201f78:	e0fb9603 	ldbu	r3,-4520(fp)
 8201f7c:	00824034 	movhi	r2,2304
 8201f80:	10801004 	addi	r2,r2,64
 8201f84:	10c00035 	stwio	r3,0(r2)


	   char  tx_buf_data[SSS_TX_BUF_SIZE];
	   char *tx_wr_pos_data = tx_buf_data;
 8201f88:	e0be8804 	addi	r2,fp,-1504
 8201f8c:	e0bb9715 	stw	r2,-4516(fp)

	   //loop over the waveform
	   for(alt_u16 i=1; i<=1000; i++){
 8201f90:	00800044 	movi	r2,1
 8201f94:	e0bb980d 	sth	r2,-4512(fp)
 8201f98:	00002c06 	br	820204c <sss_exec_command+0x204>

		   //request the ith sample of the waveform
		   IOWR_ALTERA_AVALON_PIO_DATA(SAMPLENUM_BASE, i);
 8201f9c:	e0fb980b 	ldhu	r3,-4512(fp)
 8201fa0:	00824034 	movhi	r2,2304
 8201fa4:	10801804 	addi	r2,r2,96
 8201fa8:	10c00035 	stwio	r3,0(r2)

		   //usleep(10);

		   alt_u16 sample = IORD_ALTERA_AVALON_PIO_DATA(WAVESAMPLE_BASE);
 8201fac:	00824034 	movhi	r2,2304
 8201fb0:	10801404 	addi	r2,r2,80
 8201fb4:	10800037 	ldwio	r2,0(r2)
 8201fb8:	e0bb990d 	sth	r2,-4508(fp)

		   //printf("%d\t", i);
		   //printf("%d\n", sample);

		   tx_wr_pos_data += sprintf(tx_wr_pos_data, "%d\n", sample);
 8201fbc:	e0bb990b 	ldhu	r2,-4508(fp)
 8201fc0:	100d883a 	mov	r6,r2
 8201fc4:	01420974 	movhi	r5,2085
 8201fc8:	2973e304 	addi	r5,r5,-12404
 8201fcc:	e13b9717 	ldw	r4,-4516(fp)
 8201fd0:	82037740 	call	8203774 <sprintf>
 8201fd4:	1007883a 	mov	r3,r2
 8201fd8:	e0bb9717 	ldw	r2,-4516(fp)
 8201fdc:	10c5883a 	add	r2,r2,r3
 8201fe0:	e0bb9715 	stw	r2,-4516(fp)

		   //send data every 100 samples.
		   if(i%100==0){
 8201fe4:	e0bb980b 	ldhu	r2,-4512(fp)
 8201fe8:	01401904 	movi	r5,100
 8201fec:	1009883a 	mov	r4,r2
 8201ff0:	8202cd00 	call	8202cd0 <__umodsi3>
 8201ff4:	10bfffcc 	andi	r2,r2,65535
 8201ff8:	1000111e 	bne	r2,zero,8202040 <sss_exec_command+0x1f8>
			   send(conn->fd, tx_buf_data, tx_wr_pos_data - tx_buf_data, 0);
 8201ffc:	e0bfff17 	ldw	r2,-4(fp)
 8202000:	11000117 	ldw	r4,4(r2)
 8202004:	e0fb9717 	ldw	r3,-4516(fp)
 8202008:	e0be8804 	addi	r2,fp,-1504
 820200c:	1887c83a 	sub	r3,r3,r2
 8202010:	e0be8804 	addi	r2,fp,-1504
 8202014:	000f883a 	mov	r7,zero
 8202018:	180d883a 	mov	r6,r3
 820201c:	100b883a 	mov	r5,r2
 8202020:	82315cc0 	call	82315cc <t_send>

			   memset(tx_buf_data, 0, sizeof tx_buf_data);
 8202024:	e0be8804 	addi	r2,fp,-1504
 8202028:	01817704 	movi	r6,1500
 820202c:	000b883a 	mov	r5,zero
 8202030:	1009883a 	mov	r4,r2
 8202034:	82032100 	call	8203210 <memset>
			   tx_wr_pos_data = tx_buf_data;
 8202038:	e0be8804 	addi	r2,fp,-1504
 820203c:	e0bb9715 	stw	r2,-4516(fp)

	   char  tx_buf_data[SSS_TX_BUF_SIZE];
	   char *tx_wr_pos_data = tx_buf_data;

	   //loop over the waveform
	   for(alt_u16 i=1; i<=1000; i++){
 8202040:	e0bb980b 	ldhu	r2,-4512(fp)
 8202044:	10800044 	addi	r2,r2,1
 8202048:	e0bb980d 	sth	r2,-4512(fp)
 820204c:	e0bb980b 	ldhu	r2,-4512(fp)
 8202050:	1080fa70 	cmpltui	r2,r2,1001
 8202054:	103fd11e 	bne	r2,zero,8201f9c <sss_exec_command+0x154>
			   tx_wr_pos_data = tx_buf_data;

		   }

	   }
	   IOWR_ALTERA_AVALON_PIO_DATA(SAMPLENUM_BASE, 1001);
 8202058:	00c0fa44 	movi	r3,1001
 820205c:	00824034 	movhi	r2,2304
 8202060:	10801804 	addi	r2,r2,96
 8202064:	10c00035 	stwio	r3,0(r2)
	   //usleep(10);
	   alt_u16 waveNum = IORD_ALTERA_AVALON_PIO_DATA(WAVESAMPLE_BASE);
 8202068:	00824034 	movhi	r2,2304
 820206c:	10801404 	addi	r2,r2,80
 8202070:	10800037 	ldwio	r2,0(r2)
 8202074:	e0bb998d 	sth	r2,-4506(fp)
	   //printf("%d\n", waveNum);


	   IOWR_ALTERA_AVALON_PIO_DATA(SAMPLENUM_BASE, 0);
 8202078:	0007883a 	mov	r3,zero
 820207c:	00824034 	movhi	r2,2304
 8202080:	10801804 	addi	r2,r2,96
 8202084:	10c00035 	stwio	r3,0(r2)

	   memset(tx_buf_data, 0, sizeof tx_buf_data);
 8202088:	e0be8804 	addi	r2,fp,-1504
 820208c:	01817704 	movi	r6,1500
 8202090:	000b883a 	mov	r5,zero
 8202094:	1009883a 	mov	r4,r2
 8202098:	82032100 	call	8203210 <memset>
	   tx_wr_pos_data = tx_buf_data;
 820209c:	e0be8804 	addi	r2,fp,-1504
 82020a0:	e0bb9715 	stw	r2,-4516(fp)

	   tx_wr_pos_data += sprintf(tx_wr_pos_data, "%d\ncomplete\n",waveNum);
 82020a4:	e0bb998b 	ldhu	r2,-4506(fp)
 82020a8:	100d883a 	mov	r6,r2
 82020ac:	01420974 	movhi	r5,2085
 82020b0:	2973e404 	addi	r5,r5,-12400
 82020b4:	e13b9717 	ldw	r4,-4516(fp)
 82020b8:	82037740 	call	8203774 <sprintf>
 82020bc:	1007883a 	mov	r3,r2
 82020c0:	e0bb9717 	ldw	r2,-4516(fp)
 82020c4:	10c5883a 	add	r2,r2,r3
 82020c8:	e0bb9715 	stw	r2,-4516(fp)

	   send(conn->fd, tx_buf_data, tx_wr_pos_data - tx_buf_data, 0);
 82020cc:	e0bfff17 	ldw	r2,-4(fp)
 82020d0:	11000117 	ldw	r4,4(r2)
 82020d4:	e0fb9717 	ldw	r3,-4516(fp)
 82020d8:	e0be8804 	addi	r2,fp,-1504
 82020dc:	1887c83a 	sub	r3,r3,r2
 82020e0:	e0be8804 	addi	r2,fp,-1504
 82020e4:	000f883a 	mov	r7,zero
 82020e8:	180d883a 	mov	r6,r3
 82020ec:	100b883a 	mov	r5,r2
 82020f0:	82315cc0 	call	82315cc <t_send>

	   //reset the control pio

	   endValue ^= (-0 ^ endValue) & (1 << 0);
 82020f4:	e0fb9603 	ldbu	r3,-4520(fp)
 82020f8:	00bfff84 	movi	r2,-2
 82020fc:	1884703a 	and	r2,r3,r2
 8202100:	e0bb9605 	stb	r2,-4520(fp)
 8202104:	00019e06 	br	8202780 <sss_exec_command+0x938>
   } else if( strstr(text_buf, "delay")) {
 8202108:	e0bd1104 	addi	r2,fp,-3004
 820210c:	01420974 	movhi	r5,2085
 8202110:	2973e804 	addi	r5,r5,-12384
 8202114:	1009883a 	mov	r4,r2
 8202118:	82045080 	call	8204508 <strstr>
 820211c:	10003526 	beq	r2,zero,82021f4 <sss_exec_command+0x3ac>
	   if ( strstr(text_buf, ":on")){
 8202120:	e0bd1104 	addi	r2,fp,-3004
 8202124:	01420974 	movhi	r5,2085
 8202128:	2973ea04 	addi	r5,r5,-12376
 820212c:	1009883a 	mov	r4,r2
 8202130:	82045080 	call	8204508 <strstr>
 8202134:	10001626 	beq	r2,zero,8202190 <sss_exec_command+0x348>
		   tx_wr_pos += sprintf(tx_wr_pos, "Enabling delay\n");
 8202138:	e0fb9417 	ldw	r3,-4528(fp)
 820213c:	00820974 	movhi	r2,2085
 8202140:	10b3eb04 	addi	r2,r2,-12372
 8202144:	1009883a 	mov	r4,r2
 8202148:	00800404 	movi	r2,16
 820214c:	100d883a 	mov	r6,r2
 8202150:	200b883a 	mov	r5,r4
 8202154:	1809883a 	mov	r4,r3
 8202158:	8202f6c0 	call	8202f6c <memcpy>
 820215c:	008003c4 	movi	r2,15
 8202160:	1007883a 	mov	r3,r2
 8202164:	e0bb9417 	ldw	r2,-4528(fp)
 8202168:	10c5883a 	add	r2,r2,r3
 820216c:	e0bb9415 	stw	r2,-4528(fp)
		   endValue ^= (-1 ^ endValue) & (1 << 3);
 8202170:	e0bb9603 	ldbu	r2,-4520(fp)
 8202174:	0084303a 	nor	r2,zero,r2
 8202178:	1080020c 	andi	r2,r2,8
 820217c:	1007883a 	mov	r3,r2
 8202180:	e0bb9603 	ldbu	r2,-4520(fp)
 8202184:	1884f03a 	xor	r2,r3,r2
 8202188:	e0bb9605 	stb	r2,-4520(fp)
 820218c:	00017c06 	br	8202780 <sss_exec_command+0x938>

	   } else if ( strstr(text_buf, ":off")){
 8202190:	e0bd1104 	addi	r2,fp,-3004
 8202194:	01420974 	movhi	r5,2085
 8202198:	2973ef04 	addi	r5,r5,-12356
 820219c:	1009883a 	mov	r4,r2
 82021a0:	82045080 	call	8204508 <strstr>
 82021a4:	10017626 	beq	r2,zero,8202780 <sss_exec_command+0x938>
		   tx_wr_pos += sprintf(tx_wr_pos, "Disabling delay\n");
 82021a8:	e0fb9417 	ldw	r3,-4528(fp)
 82021ac:	00820974 	movhi	r2,2085
 82021b0:	10b3f104 	addi	r2,r2,-12348
 82021b4:	1009883a 	mov	r4,r2
 82021b8:	00800444 	movi	r2,17
 82021bc:	100d883a 	mov	r6,r2
 82021c0:	200b883a 	mov	r5,r4
 82021c4:	1809883a 	mov	r4,r3
 82021c8:	8202f6c0 	call	8202f6c <memcpy>
 82021cc:	00800404 	movi	r2,16
 82021d0:	1007883a 	mov	r3,r2
 82021d4:	e0bb9417 	ldw	r2,-4528(fp)
 82021d8:	10c5883a 	add	r2,r2,r3
 82021dc:	e0bb9415 	stw	r2,-4528(fp)
		   endValue ^= (-0 ^ endValue) & (1 << 3);
 82021e0:	e0fb9603 	ldbu	r3,-4520(fp)
 82021e4:	00bffdc4 	movi	r2,-9
 82021e8:	1884703a 	and	r2,r3,r2
 82021ec:	e0bb9605 	stb	r2,-4520(fp)
 82021f0:	00016306 	br	8202780 <sss_exec_command+0x938>
	   }
   } else if( strstr(text_buf, "trig")) {
 82021f4:	e0bd1104 	addi	r2,fp,-3004
 82021f8:	01420974 	movhi	r5,2085
 82021fc:	2973f604 	addi	r5,r5,-12328
 8202200:	1009883a 	mov	r4,r2
 8202204:	82045080 	call	8204508 <strstr>
 8202208:	10008926 	beq	r2,zero,8202430 <sss_exec_command+0x5e8>
	   if( strstr(text_buf, ":source")) {
 820220c:	e0bd1104 	addi	r2,fp,-3004
 8202210:	01420974 	movhi	r5,2085
 8202214:	2973f804 	addi	r5,r5,-12320
 8202218:	1009883a 	mov	r4,r2
 820221c:	82045080 	call	8204508 <strstr>
 8202220:	10004826 	beq	r2,zero,8202344 <sss_exec_command+0x4fc>
	   	   if ( strstr(text_buf, ":self")){
 8202224:	e0bd1104 	addi	r2,fp,-3004
 8202228:	01420974 	movhi	r5,2085
 820222c:	2973fa04 	addi	r5,r5,-12312
 8202230:	1009883a 	mov	r4,r2
 8202234:	82045080 	call	8204508 <strstr>
 8202238:	10002926 	beq	r2,zero,82022e0 <sss_exec_command+0x498>
			   tx_wr_pos += sprintf(tx_wr_pos, "Self trigger\n");
 820223c:	e0bb9417 	ldw	r2,-4528(fp)
 8202240:	00c014c4 	movi	r3,83
 8202244:	10c00005 	stb	r3,0(r2)
 8202248:	00c01944 	movi	r3,101
 820224c:	10c00045 	stb	r3,1(r2)
 8202250:	00c01b04 	movi	r3,108
 8202254:	10c00085 	stb	r3,2(r2)
 8202258:	00c01984 	movi	r3,102
 820225c:	10c000c5 	stb	r3,3(r2)
 8202260:	00c00804 	movi	r3,32
 8202264:	10c00105 	stb	r3,4(r2)
 8202268:	00c01d04 	movi	r3,116
 820226c:	10c00145 	stb	r3,5(r2)
 8202270:	00c01c84 	movi	r3,114
 8202274:	10c00185 	stb	r3,6(r2)
 8202278:	00c01a44 	movi	r3,105
 820227c:	10c001c5 	stb	r3,7(r2)
 8202280:	00c019c4 	movi	r3,103
 8202284:	10c00205 	stb	r3,8(r2)
 8202288:	00c019c4 	movi	r3,103
 820228c:	10c00245 	stb	r3,9(r2)
 8202290:	00c01944 	movi	r3,101
 8202294:	10c00285 	stb	r3,10(r2)
 8202298:	00c01c84 	movi	r3,114
 820229c:	10c002c5 	stb	r3,11(r2)
 82022a0:	00c00284 	movi	r3,10
 82022a4:	10c00305 	stb	r3,12(r2)
 82022a8:	10000345 	stb	zero,13(r2)
 82022ac:	00800344 	movi	r2,13
 82022b0:	1007883a 	mov	r3,r2
 82022b4:	e0bb9417 	ldw	r2,-4528(fp)
 82022b8:	10c5883a 	add	r2,r2,r3
 82022bc:	e0bb9415 	stw	r2,-4528(fp)
	   		   endValue ^= (-1 ^ endValue) & (1 << 1);
 82022c0:	e0bb9603 	ldbu	r2,-4520(fp)
 82022c4:	0084303a 	nor	r2,zero,r2
 82022c8:	1080008c 	andi	r2,r2,2
 82022cc:	1007883a 	mov	r3,r2
 82022d0:	e0bb9603 	ldbu	r2,-4520(fp)
 82022d4:	1884f03a 	xor	r2,r3,r2
 82022d8:	e0bb9605 	stb	r2,-4520(fp)
 82022dc:	00012806 	br	8202780 <sss_exec_command+0x938>

	   	   } else if ( strstr(text_buf, ":ext")){
 82022e0:	e0bd1104 	addi	r2,fp,-3004
 82022e4:	01420974 	movhi	r5,2085
 82022e8:	2973fc04 	addi	r5,r5,-12304
 82022ec:	1009883a 	mov	r4,r2
 82022f0:	82045080 	call	8204508 <strstr>
 82022f4:	10012226 	beq	r2,zero,8202780 <sss_exec_command+0x938>
			   tx_wr_pos += sprintf(tx_wr_pos, "External trigger\n");
 82022f8:	e0fb9417 	ldw	r3,-4528(fp)
 82022fc:	00820974 	movhi	r2,2085
 8202300:	10b3fe04 	addi	r2,r2,-12296
 8202304:	1009883a 	mov	r4,r2
 8202308:	00800484 	movi	r2,18
 820230c:	100d883a 	mov	r6,r2
 8202310:	200b883a 	mov	r5,r4
 8202314:	1809883a 	mov	r4,r3
 8202318:	8202f6c0 	call	8202f6c <memcpy>
 820231c:	00800444 	movi	r2,17
 8202320:	1007883a 	mov	r3,r2
 8202324:	e0bb9417 	ldw	r2,-4528(fp)
 8202328:	10c5883a 	add	r2,r2,r3
 820232c:	e0bb9415 	stw	r2,-4528(fp)
	   		   endValue ^= (-0 ^ endValue) & (1 << 1);
 8202330:	e0fb9603 	ldbu	r3,-4520(fp)
 8202334:	00bfff44 	movi	r2,-3
 8202338:	1884703a 	and	r2,r3,r2
 820233c:	e0bb9605 	stb	r2,-4520(fp)
 8202340:	00010f06 	br	8202780 <sss_exec_command+0x938>
	   	   }
	   } else if( strstr(text_buf, ":slope")) {
 8202344:	e0bd1104 	addi	r2,fp,-3004
 8202348:	01420974 	movhi	r5,2085
 820234c:	29740304 	addi	r5,r5,-12276
 8202350:	1009883a 	mov	r4,r2
 8202354:	82045080 	call	8204508 <strstr>
 8202358:	10010926 	beq	r2,zero,8202780 <sss_exec_command+0x938>
		   if ( strstr(text_buf, ":pos")){
 820235c:	e0bd1104 	addi	r2,fp,-3004
 8202360:	01420974 	movhi	r5,2085
 8202364:	29740504 	addi	r5,r5,-12268
 8202368:	1009883a 	mov	r4,r2
 820236c:	82045080 	call	8204508 <strstr>
 8202370:	10001626 	beq	r2,zero,82023cc <sss_exec_command+0x584>
			   tx_wr_pos += sprintf(tx_wr_pos, "Positive trigger\n");
 8202374:	e0fb9417 	ldw	r3,-4528(fp)
 8202378:	00820974 	movhi	r2,2085
 820237c:	10b40704 	addi	r2,r2,-12260
 8202380:	1009883a 	mov	r4,r2
 8202384:	00800484 	movi	r2,18
 8202388:	100d883a 	mov	r6,r2
 820238c:	200b883a 	mov	r5,r4
 8202390:	1809883a 	mov	r4,r3
 8202394:	8202f6c0 	call	8202f6c <memcpy>
 8202398:	00800444 	movi	r2,17
 820239c:	1007883a 	mov	r3,r2
 82023a0:	e0bb9417 	ldw	r2,-4528(fp)
 82023a4:	10c5883a 	add	r2,r2,r3
 82023a8:	e0bb9415 	stw	r2,-4528(fp)
			   endValue ^= (-1 ^ endValue) & (1 << 2);
 82023ac:	e0bb9603 	ldbu	r2,-4520(fp)
 82023b0:	0084303a 	nor	r2,zero,r2
 82023b4:	1080010c 	andi	r2,r2,4
 82023b8:	1007883a 	mov	r3,r2
 82023bc:	e0bb9603 	ldbu	r2,-4520(fp)
 82023c0:	1884f03a 	xor	r2,r3,r2
 82023c4:	e0bb9605 	stb	r2,-4520(fp)
 82023c8:	0000ed06 	br	8202780 <sss_exec_command+0x938>

		   } else if ( strstr(text_buf, ":neg")){
 82023cc:	e0bd1104 	addi	r2,fp,-3004
 82023d0:	01420974 	movhi	r5,2085
 82023d4:	29740c04 	addi	r5,r5,-12240
 82023d8:	1009883a 	mov	r4,r2
 82023dc:	82045080 	call	8204508 <strstr>
 82023e0:	1000e726 	beq	r2,zero,8202780 <sss_exec_command+0x938>
			   tx_wr_pos += sprintf(tx_wr_pos, "negative trigger\n");
 82023e4:	e0fb9417 	ldw	r3,-4528(fp)
 82023e8:	00820974 	movhi	r2,2085
 82023ec:	10b40e04 	addi	r2,r2,-12232
 82023f0:	1009883a 	mov	r4,r2
 82023f4:	00800484 	movi	r2,18
 82023f8:	100d883a 	mov	r6,r2
 82023fc:	200b883a 	mov	r5,r4
 8202400:	1809883a 	mov	r4,r3
 8202404:	8202f6c0 	call	8202f6c <memcpy>
 8202408:	00800444 	movi	r2,17
 820240c:	1007883a 	mov	r3,r2
 8202410:	e0bb9417 	ldw	r2,-4528(fp)
 8202414:	10c5883a 	add	r2,r2,r3
 8202418:	e0bb9415 	stw	r2,-4528(fp)
			   endValue ^= (-0 ^ endValue) & (1 << 2);
 820241c:	e0fb9603 	ldbu	r3,-4520(fp)
 8202420:	00bffec4 	movi	r2,-5
 8202424:	1884703a 	and	r2,r3,r2
 8202428:	e0bb9605 	stb	r2,-4520(fp)
 820242c:	0000d406 	br	8202780 <sss_exec_command+0x938>
		   }
	   }
   } else if ( strstr(text_buf, "quit") != NULL){
 8202430:	e0bd1104 	addi	r2,fp,-3004
 8202434:	01420974 	movhi	r5,2085
 8202438:	29741304 	addi	r5,r5,-12212
 820243c:	1009883a 	mov	r4,r2
 8202440:	82045080 	call	8204508 <strstr>
 8202444:	10001226 	beq	r2,zero,8202490 <sss_exec_command+0x648>
	   tx_wr_pos += sprintf(tx_wr_pos,"Terminating connection.\n\n\r");
 8202448:	e0fb9417 	ldw	r3,-4528(fp)
 820244c:	00820974 	movhi	r2,2085
 8202450:	10b41504 	addi	r2,r2,-12204
 8202454:	1009883a 	mov	r4,r2
 8202458:	008006c4 	movi	r2,27
 820245c:	100d883a 	mov	r6,r2
 8202460:	200b883a 	mov	r5,r4
 8202464:	1809883a 	mov	r4,r3
 8202468:	8202f6c0 	call	8202f6c <memcpy>
 820246c:	00800684 	movi	r2,26
 8202470:	1007883a 	mov	r3,r2
 8202474:	e0bb9417 	ldw	r2,-4528(fp)
 8202478:	10c5883a 	add	r2,r2,r3
 820247c:	e0bb9415 	stw	r2,-4528(fp)
	   conn->close = 1;
 8202480:	e0bfff17 	ldw	r2,-4(fp)
 8202484:	00c00044 	movi	r3,1
 8202488:	10c00215 	stw	r3,8(r2)
 820248c:	0000bc06 	br	8202780 <sss_exec_command+0x938>
   } else if ( strstr(text_buf, "*rst") != NULL){
 8202490:	e0bd1104 	addi	r2,fp,-3004
 8202494:	01420974 	movhi	r5,2085
 8202498:	29741c04 	addi	r5,r5,-12176
 820249c:	1009883a 	mov	r4,r2
 82024a0:	82045080 	call	8204508 <strstr>
 82024a4:	10001d26 	beq	r2,zero,820251c <sss_exec_command+0x6d4>
	   tx_wr_pos += sprintf(tx_wr_pos, "Resetting\n");
 82024a8:	e0bb9417 	ldw	r2,-4528(fp)
 82024ac:	00c01484 	movi	r3,82
 82024b0:	10c00005 	stb	r3,0(r2)
 82024b4:	00c01944 	movi	r3,101
 82024b8:	10c00045 	stb	r3,1(r2)
 82024bc:	00c01cc4 	movi	r3,115
 82024c0:	10c00085 	stb	r3,2(r2)
 82024c4:	00c01944 	movi	r3,101
 82024c8:	10c000c5 	stb	r3,3(r2)
 82024cc:	00c01d04 	movi	r3,116
 82024d0:	10c00105 	stb	r3,4(r2)
 82024d4:	00c01d04 	movi	r3,116
 82024d8:	10c00145 	stb	r3,5(r2)
 82024dc:	00c01a44 	movi	r3,105
 82024e0:	10c00185 	stb	r3,6(r2)
 82024e4:	00c01b84 	movi	r3,110
 82024e8:	10c001c5 	stb	r3,7(r2)
 82024ec:	00c019c4 	movi	r3,103
 82024f0:	10c00205 	stb	r3,8(r2)
 82024f4:	00c00284 	movi	r3,10
 82024f8:	10c00245 	stb	r3,9(r2)
 82024fc:	10000285 	stb	zero,10(r2)
 8202500:	00800284 	movi	r2,10
 8202504:	1007883a 	mov	r3,r2
 8202508:	e0bb9417 	ldw	r2,-4528(fp)
 820250c:	10c5883a 	add	r2,r2,r3
 8202510:	e0bb9415 	stw	r2,-4528(fp)
	   endValue=0;
 8202514:	e03b9605 	stb	zero,-4520(fp)
 8202518:	00009906 	br	8202780 <sss_exec_command+0x938>

   } else if ( strstr(text_buf, "status") != NULL){
 820251c:	e0bd1104 	addi	r2,fp,-3004
 8202520:	01420974 	movhi	r5,2085
 8202524:	29741e04 	addi	r5,r5,-12168
 8202528:	1009883a 	mov	r4,r2
 820252c:	82045080 	call	8204508 <strstr>
 8202530:	10008b26 	beq	r2,zero,8202760 <sss_exec_command+0x918>
	   if((startValue >> 1) & 1){
 8202534:	e0bb98c3 	ldbu	r2,-4509(fp)
 8202538:	1004d07a 	srli	r2,r2,1
 820253c:	10803fcc 	andi	r2,r2,255
 8202540:	1080004c 	andi	r2,r2,1
 8202544:	10002226 	beq	r2,zero,82025d0 <sss_exec_command+0x788>
		   tx_wr_pos += sprintf(tx_wr_pos, "Self Trigger\n");
 8202548:	e0bb9417 	ldw	r2,-4528(fp)
 820254c:	00c014c4 	movi	r3,83
 8202550:	10c00005 	stb	r3,0(r2)
 8202554:	00c01944 	movi	r3,101
 8202558:	10c00045 	stb	r3,1(r2)
 820255c:	00c01b04 	movi	r3,108
 8202560:	10c00085 	stb	r3,2(r2)
 8202564:	00c01984 	movi	r3,102
 8202568:	10c000c5 	stb	r3,3(r2)
 820256c:	00c00804 	movi	r3,32
 8202570:	10c00105 	stb	r3,4(r2)
 8202574:	00c01504 	movi	r3,84
 8202578:	10c00145 	stb	r3,5(r2)
 820257c:	00c01c84 	movi	r3,114
 8202580:	10c00185 	stb	r3,6(r2)
 8202584:	00c01a44 	movi	r3,105
 8202588:	10c001c5 	stb	r3,7(r2)
 820258c:	00c019c4 	movi	r3,103
 8202590:	10c00205 	stb	r3,8(r2)
 8202594:	00c019c4 	movi	r3,103
 8202598:	10c00245 	stb	r3,9(r2)
 820259c:	00c01944 	movi	r3,101
 82025a0:	10c00285 	stb	r3,10(r2)
 82025a4:	00c01c84 	movi	r3,114
 82025a8:	10c002c5 	stb	r3,11(r2)
 82025ac:	00c00284 	movi	r3,10
 82025b0:	10c00305 	stb	r3,12(r2)
 82025b4:	10000345 	stb	zero,13(r2)
 82025b8:	00800344 	movi	r2,13
 82025bc:	1007883a 	mov	r3,r2
 82025c0:	e0bb9417 	ldw	r2,-4528(fp)
 82025c4:	10c5883a 	add	r2,r2,r3
 82025c8:	e0bb9415 	stw	r2,-4528(fp)
 82025cc:	00000e06 	br	8202608 <sss_exec_command+0x7c0>
	   } else {
		   tx_wr_pos += sprintf(tx_wr_pos, "External Trigger\n");
 82025d0:	e0fb9417 	ldw	r3,-4528(fp)
 82025d4:	00820974 	movhi	r2,2085
 82025d8:	10b42004 	addi	r2,r2,-12160
 82025dc:	1009883a 	mov	r4,r2
 82025e0:	00800484 	movi	r2,18
 82025e4:	100d883a 	mov	r6,r2
 82025e8:	200b883a 	mov	r5,r4
 82025ec:	1809883a 	mov	r4,r3
 82025f0:	8202f6c0 	call	8202f6c <memcpy>
 82025f4:	00800444 	movi	r2,17
 82025f8:	1007883a 	mov	r3,r2
 82025fc:	e0bb9417 	ldw	r2,-4528(fp)
 8202600:	10c5883a 	add	r2,r2,r3
 8202604:	e0bb9415 	stw	r2,-4528(fp)
	   }

	   if((startValue >> 2) & 1){
 8202608:	e0bb98c3 	ldbu	r2,-4509(fp)
 820260c:	1004d0ba 	srli	r2,r2,2
 8202610:	10803fcc 	andi	r2,r2,255
 8202614:	1080004c 	andi	r2,r2,1
 8202618:	10000f26 	beq	r2,zero,8202658 <sss_exec_command+0x810>
		   tx_wr_pos += sprintf(tx_wr_pos, "Positive Trigger\n");
 820261c:	e0fb9417 	ldw	r3,-4528(fp)
 8202620:	00820974 	movhi	r2,2085
 8202624:	10b42504 	addi	r2,r2,-12140
 8202628:	1009883a 	mov	r4,r2
 820262c:	00800484 	movi	r2,18
 8202630:	100d883a 	mov	r6,r2
 8202634:	200b883a 	mov	r5,r4
 8202638:	1809883a 	mov	r4,r3
 820263c:	8202f6c0 	call	8202f6c <memcpy>
 8202640:	00800444 	movi	r2,17
 8202644:	1007883a 	mov	r3,r2
 8202648:	e0bb9417 	ldw	r2,-4528(fp)
 820264c:	10c5883a 	add	r2,r2,r3
 8202650:	e0bb9415 	stw	r2,-4528(fp)
 8202654:	00000e06 	br	8202690 <sss_exec_command+0x848>
	   } else {
		   tx_wr_pos += sprintf(tx_wr_pos, "Negative Trigger\n");
 8202658:	e0fb9417 	ldw	r3,-4528(fp)
 820265c:	00820974 	movhi	r2,2085
 8202660:	10b42a04 	addi	r2,r2,-12120
 8202664:	1009883a 	mov	r4,r2
 8202668:	00800484 	movi	r2,18
 820266c:	100d883a 	mov	r6,r2
 8202670:	200b883a 	mov	r5,r4
 8202674:	1809883a 	mov	r4,r3
 8202678:	8202f6c0 	call	8202f6c <memcpy>
 820267c:	00800444 	movi	r2,17
 8202680:	1007883a 	mov	r3,r2
 8202684:	e0bb9417 	ldw	r2,-4528(fp)
 8202688:	10c5883a 	add	r2,r2,r3
 820268c:	e0bb9415 	stw	r2,-4528(fp)
	   }

	   if((startValue >> 3) & 1){
 8202690:	e0bb98c3 	ldbu	r2,-4509(fp)
 8202694:	1004d0fa 	srli	r2,r2,3
 8202698:	10803fcc 	andi	r2,r2,255
 820269c:	1080004c 	andi	r2,r2,1
 82026a0:	10000f26 	beq	r2,zero,82026e0 <sss_exec_command+0x898>
		   tx_wr_pos += sprintf(tx_wr_pos, "Delay enabled\n");
 82026a4:	e0fb9417 	ldw	r3,-4528(fp)
 82026a8:	00820974 	movhi	r2,2085
 82026ac:	10b42f04 	addi	r2,r2,-12100
 82026b0:	1009883a 	mov	r4,r2
 82026b4:	008003c4 	movi	r2,15
 82026b8:	100d883a 	mov	r6,r2
 82026bc:	200b883a 	mov	r5,r4
 82026c0:	1809883a 	mov	r4,r3
 82026c4:	8202f6c0 	call	8202f6c <memcpy>
 82026c8:	00800384 	movi	r2,14
 82026cc:	1007883a 	mov	r3,r2
 82026d0:	e0bb9417 	ldw	r2,-4528(fp)
 82026d4:	10c5883a 	add	r2,r2,r3
 82026d8:	e0bb9415 	stw	r2,-4528(fp)
 82026dc:	00000e06 	br	8202718 <sss_exec_command+0x8d0>
	   } else {
		   tx_wr_pos += sprintf(tx_wr_pos, "Delay disabled\n");
 82026e0:	e0fb9417 	ldw	r3,-4528(fp)
 82026e4:	00820974 	movhi	r2,2085
 82026e8:	10b43304 	addi	r2,r2,-12084
 82026ec:	1009883a 	mov	r4,r2
 82026f0:	00800404 	movi	r2,16
 82026f4:	100d883a 	mov	r6,r2
 82026f8:	200b883a 	mov	r5,r4
 82026fc:	1809883a 	mov	r4,r3
 8202700:	8202f6c0 	call	8202f6c <memcpy>
 8202704:	008003c4 	movi	r2,15
 8202708:	1007883a 	mov	r3,r2
 820270c:	e0bb9417 	ldw	r2,-4528(fp)
 8202710:	10c5883a 	add	r2,r2,r3
 8202714:	e0bb9415 	stw	r2,-4528(fp)
	   }

	   tx_wr_pos += sprintf(tx_wr_pos, "done\n");
 8202718:	e0bb9417 	ldw	r2,-4528(fp)
 820271c:	00c01904 	movi	r3,100
 8202720:	10c00005 	stb	r3,0(r2)
 8202724:	00c01bc4 	movi	r3,111
 8202728:	10c00045 	stb	r3,1(r2)
 820272c:	00c01b84 	movi	r3,110
 8202730:	10c00085 	stb	r3,2(r2)
 8202734:	00c01944 	movi	r3,101
 8202738:	10c000c5 	stb	r3,3(r2)
 820273c:	00c00284 	movi	r3,10
 8202740:	10c00105 	stb	r3,4(r2)
 8202744:	10000145 	stb	zero,5(r2)
 8202748:	00800144 	movi	r2,5
 820274c:	1007883a 	mov	r3,r2
 8202750:	e0bb9417 	ldw	r2,-4528(fp)
 8202754:	10c5883a 	add	r2,r2,r3
 8202758:	e0bb9415 	stw	r2,-4528(fp)
 820275c:	00000806 	br	8202780 <sss_exec_command+0x938>
   } else if ( strstr(text_buf, "menu") != NULL){
 8202760:	e0bd1104 	addi	r2,fp,-3004
 8202764:	01420974 	movhi	r5,2085
 8202768:	29743704 	addi	r5,r5,-12068
 820276c:	1009883a 	mov	r4,r2
 8202770:	82045080 	call	8204508 <strstr>
 8202774:	10000226 	beq	r2,zero,8202780 <sss_exec_command+0x938>
	   sss_send_menu(conn);
 8202778:	e13fff17 	ldw	r4,-4(fp)
 820277c:	8201abc0 	call	8201abc <sss_send_menu>

   }



  IOWR_ALTERA_AVALON_PIO_DATA(ADC_CONTROL_BASE, endValue);
 8202780:	e0fb9603 	ldbu	r3,-4520(fp)
 8202784:	00824034 	movhi	r2,2304
 8202788:	10801004 	addi	r2,r2,64
 820278c:	10c00035 	stwio	r3,0(r2)


  send(conn->fd, tx_buf, tx_wr_pos - tx_buf, 0);  
 8202790:	e0bfff17 	ldw	r2,-4(fp)
 8202794:	11000117 	ldw	r4,4(r2)
 8202798:	e0fb9417 	ldw	r3,-4528(fp)
 820279c:	e0bb9a04 	addi	r2,fp,-4504
 82027a0:	1887c83a 	sub	r3,r3,r2
 82027a4:	e0bb9a04 	addi	r2,fp,-4504
 82027a8:	000f883a 	mov	r7,zero
 82027ac:	180d883a 	mov	r6,r3
 82027b0:	100b883a 	mov	r5,r2
 82027b4:	82315cc0 	call	82315cc <t_send>
  
  return;
 82027b8:	0001883a 	nop
}
 82027bc:	e037883a 	mov	sp,fp
 82027c0:	dfc00117 	ldw	ra,4(sp)
 82027c4:	df000017 	ldw	fp,0(sp)
 82027c8:	dec00204 	addi	sp,sp,8
 82027cc:	f800283a 	ret

082027d0 <sss_handle_receive>:
 * sss_exec_command() routine. Aside from these, we must move incoming
 * (un-processed) data to buffer start as appropriate and keep track of 
 * associated pointers.
 */
void sss_handle_receive(SSSConn* conn)
{
 82027d0:	defffa04 	addi	sp,sp,-24
 82027d4:	dfc00515 	stw	ra,20(sp)
 82027d8:	df000415 	stw	fp,16(sp)
 82027dc:	df000404 	addi	fp,sp,16
 82027e0:	e13fff15 	stw	r4,-4(fp)
  int data_used = 0, rx_code = 0;
 82027e4:	e03ffc15 	stw	zero,-16(fp)
 82027e8:	e03ffd15 	stw	zero,-12(fp)
  char *lf_addr; 
  
  conn->rx_rd_pos = conn->rx_buffer;
 82027ec:	e0bfff17 	ldw	r2,-4(fp)
 82027f0:	10c00304 	addi	r3,r2,12
 82027f4:	e0bfff17 	ldw	r2,-4(fp)
 82027f8:	10c17a15 	stw	r3,1512(r2)
  conn->rx_wr_pos = conn->rx_buffer;
 82027fc:	e0bfff17 	ldw	r2,-4(fp)
 8202800:	10c00304 	addi	r3,r2,12
 8202804:	e0bfff17 	ldw	r2,-4(fp)
 8202808:	10c17b15 	stw	r3,1516(r2)
  
  printf("[sss_handle_receive] processing RX data\n");
 820280c:	01020974 	movhi	r4,2085
 8202810:	21343904 	addi	r4,r4,-12060
 8202814:	82036800 	call	8203680 <puts>
  
  while(conn->state != CLOSE)
 8202818:	00005606 	br	8202974 <sss_handle_receive+0x1a4>
  {
    /* Find the Carriage return which marks the end of the header */
    lf_addr = strchr((const char*)conn->rx_buffer, '\n');
 820281c:	e0bfff17 	ldw	r2,-4(fp)
 8202820:	10800304 	addi	r2,r2,12
 8202824:	01400284 	movi	r5,10
 8202828:	1009883a 	mov	r4,r2
 820282c:	82037e00 	call	82037e0 <strchr>
 8202830:	e0bffe15 	stw	r2,-8(fp)
      
    if(lf_addr)
 8202834:	e0bffe17 	ldw	r2,-8(fp)
 8202838:	10000326 	beq	r2,zero,8202848 <sss_handle_receive+0x78>
    {
      /* go off and do whatever the user wanted us to do */
      sss_exec_command(conn);
 820283c:	e13fff17 	ldw	r4,-4(fp)
 8202840:	8201e480 	call	8201e48 <sss_exec_command>
 8202844:	00001c06 	br	82028b8 <sss_handle_receive+0xe8>
    }
    /* No newline received? Then ask the socket for data */
    else
    {
      rx_code = recv(conn->fd, (char*)conn->rx_wr_pos, 
 8202848:	e0bfff17 	ldw	r2,-4(fp)
 820284c:	11000117 	ldw	r4,4(r2)
 8202850:	e0bfff17 	ldw	r2,-4(fp)
 8202854:	11417b17 	ldw	r5,1516(r2)
 8202858:	e0bfff17 	ldw	r2,-4(fp)
 820285c:	10817b17 	ldw	r2,1516(r2)
 8202860:	1007883a 	mov	r3,r2
 8202864:	e0bfff17 	ldw	r2,-4(fp)
 8202868:	10800304 	addi	r2,r2,12
 820286c:	1885c83a 	sub	r2,r3,r2
 8202870:	00c176c4 	movi	r3,1499
 8202874:	1885c83a 	sub	r2,r3,r2
 8202878:	000f883a 	mov	r7,zero
 820287c:	100d883a 	mov	r6,r2
 8202880:	82311b80 	call	82311b8 <t_recv>
 8202884:	e0bffd15 	stw	r2,-12(fp)
        SSS_RX_BUF_SIZE - (conn->rx_wr_pos - conn->rx_buffer) -1, 0);
          
     if(rx_code > 0)
 8202888:	e0bffd17 	ldw	r2,-12(fp)
 820288c:	00800a0e 	bge	zero,r2,82028b8 <sss_handle_receive+0xe8>
      {
        conn->rx_wr_pos += rx_code;
 8202890:	e0bfff17 	ldw	r2,-4(fp)
 8202894:	10c17b17 	ldw	r3,1516(r2)
 8202898:	e0bffd17 	ldw	r2,-12(fp)
 820289c:	1887883a 	add	r3,r3,r2
 82028a0:	e0bfff17 	ldw	r2,-4(fp)
 82028a4:	10c17b15 	stw	r3,1516(r2)
        
        /* Zero terminate so we can use string functions */
        *(conn->rx_wr_pos+1) = 0;
 82028a8:	e0bfff17 	ldw	r2,-4(fp)
 82028ac:	10817b17 	ldw	r2,1516(r2)
 82028b0:	10800044 	addi	r2,r2,1
 82028b4:	10000005 	stb	zero,0(r2)

    /* 
     * When the quit command is received, update our connection state so that
     * we can exit the while() loop and close the connection
     */
    conn->state = conn->close ? CLOSE : READY;
 82028b8:	e0bfff17 	ldw	r2,-4(fp)
 82028bc:	10800217 	ldw	r2,8(r2)
 82028c0:	10000226 	beq	r2,zero,82028cc <sss_handle_receive+0xfc>
 82028c4:	00800084 	movi	r2,2
 82028c8:	00000106 	br	82028d0 <sss_handle_receive+0x100>
 82028cc:	0005883a 	mov	r2,zero
 82028d0:	e0ffff17 	ldw	r3,-4(fp)
 82028d4:	18800015 	stw	r2,0(r3)

    /* Manage buffer */
    data_used = conn->rx_rd_pos - conn->rx_buffer;
 82028d8:	e0bfff17 	ldw	r2,-4(fp)
 82028dc:	10817a17 	ldw	r2,1512(r2)
 82028e0:	1007883a 	mov	r3,r2
 82028e4:	e0bfff17 	ldw	r2,-4(fp)
 82028e8:	10800304 	addi	r2,r2,12
 82028ec:	1885c83a 	sub	r2,r3,r2
 82028f0:	e0bffc15 	stw	r2,-16(fp)
    memmove(conn->rx_buffer, conn->rx_rd_pos, 
 82028f4:	e0bfff17 	ldw	r2,-4(fp)
 82028f8:	10c00304 	addi	r3,r2,12
 82028fc:	e0bfff17 	ldw	r2,-4(fp)
 8202900:	11017a17 	ldw	r4,1512(r2)
       conn->rx_wr_pos - conn->rx_rd_pos);
 8202904:	e0bfff17 	ldw	r2,-4(fp)
 8202908:	10817b17 	ldw	r2,1516(r2)
 820290c:	100b883a 	mov	r5,r2
 8202910:	e0bfff17 	ldw	r2,-4(fp)
 8202914:	10817a17 	ldw	r2,1512(r2)
 8202918:	2885c83a 	sub	r2,r5,r2
     */
    conn->state = conn->close ? CLOSE : READY;

    /* Manage buffer */
    data_used = conn->rx_rd_pos - conn->rx_buffer;
    memmove(conn->rx_buffer, conn->rx_rd_pos, 
 820291c:	100d883a 	mov	r6,r2
 8202920:	200b883a 	mov	r5,r4
 8202924:	1809883a 	mov	r4,r3
 8202928:	82030b40 	call	82030b4 <memmove>
       conn->rx_wr_pos - conn->rx_rd_pos);
    conn->rx_rd_pos = conn->rx_buffer;
 820292c:	e0bfff17 	ldw	r2,-4(fp)
 8202930:	10c00304 	addi	r3,r2,12
 8202934:	e0bfff17 	ldw	r2,-4(fp)
 8202938:	10c17a15 	stw	r3,1512(r2)
    conn->rx_wr_pos -= data_used;
 820293c:	e0bfff17 	ldw	r2,-4(fp)
 8202940:	10c17b17 	ldw	r3,1516(r2)
 8202944:	e0bffc17 	ldw	r2,-16(fp)
 8202948:	0085c83a 	sub	r2,zero,r2
 820294c:	1887883a 	add	r3,r3,r2
 8202950:	e0bfff17 	ldw	r2,-4(fp)
 8202954:	10c17b15 	stw	r3,1516(r2)
    memset(conn->rx_wr_pos, 0, data_used);
 8202958:	e0bfff17 	ldw	r2,-4(fp)
 820295c:	10817b17 	ldw	r2,1516(r2)
 8202960:	e0fffc17 	ldw	r3,-16(fp)
 8202964:	180d883a 	mov	r6,r3
 8202968:	000b883a 	mov	r5,zero
 820296c:	1009883a 	mov	r4,r2
 8202970:	82032100 	call	8203210 <memset>
  conn->rx_rd_pos = conn->rx_buffer;
  conn->rx_wr_pos = conn->rx_buffer;
  
  printf("[sss_handle_receive] processing RX data\n");
  
  while(conn->state != CLOSE)
 8202974:	e0bfff17 	ldw	r2,-4(fp)
 8202978:	10800017 	ldw	r2,0(r2)
 820297c:	10800098 	cmpnei	r2,r2,2
 8202980:	103fa61e 	bne	r2,zero,820281c <sss_handle_receive+0x4c>
    conn->rx_rd_pos = conn->rx_buffer;
    conn->rx_wr_pos -= data_used;
    memset(conn->rx_wr_pos, 0, data_used);
  }

  printf("[sss_handle_receive] closing connection\n");
 8202984:	01020974 	movhi	r4,2085
 8202988:	21344304 	addi	r4,r4,-12020
 820298c:	82036800 	call	8203680 <puts>
  close(conn->fd);
 8202990:	e0bfff17 	ldw	r2,-4(fp)
 8202994:	10800117 	ldw	r2,4(r2)
 8202998:	1009883a 	mov	r4,r2
 820299c:	82258940 	call	8225894 <close>
  sss_reset_connection(conn);
 82029a0:	e13fff17 	ldw	r4,-4(fp)
 82029a4:	8201a4c0 	call	8201a4c <sss_reset_connection>
  
  return;
 82029a8:	0001883a 	nop
}
 82029ac:	e037883a 	mov	sp,fp
 82029b0:	dfc00117 	ldw	ra,4(sp)
 82029b4:	df000017 	ldw	fp,0(sp)
 82029b8:	dec00204 	addi	sp,sp,8
 82029bc:	f800283a 	ret

082029c0 <SSSSimpleSocketServerTask>:
 * (if a connection is active), the sss data socket. When data arrives, 
 * the approrpriate routine is called to either accept/reject a connection 
 * request, or process incoming data.
 */
void SSSSimpleSocketServerTask()
{
 82029c0:	deffb604 	addi	sp,sp,-296
 82029c4:	dfc04915 	stw	ra,292(sp)
 82029c8:	df004815 	stw	fp,288(sp)
 82029cc:	df004804 	addi	fp,sp,288
   * protocol and address families respectively. However, there is usually only
   * 1 address per protocol family. Thus PF_INET and AF_INET can be interchanged.
   * In the case of NicheStack, only the use of AF_INET is supported.
   * PF_INET is not supported in NicheStack.
   */ 
  if ((fd_listen = socket(AF_INET, SOCK_STREAM, 0)) < 0)
 82029d0:	000d883a 	mov	r6,zero
 82029d4:	01400044 	movi	r5,1
 82029d8:	01000084 	movi	r4,2
 82029dc:	823048c0 	call	823048c <t_socket>
 82029e0:	e0bfba15 	stw	r2,-280(fp)
 82029e4:	e0bfba17 	ldw	r2,-280(fp)
 82029e8:	1000040e 	bge	r2,zero,82029fc <SSSSimpleSocketServerTask+0x3c>
  {
    alt_NetworkErrorHandler(EXPANDED_DIAGNOSIS_CODE,"[sss_task] Socket creation failed");
 82029ec:	01420974 	movhi	r5,2085
 82029f0:	29744d04 	addi	r5,r5,-11980
 82029f4:	01003fc4 	movi	r4,255
 82029f8:	82007ac0 	call	82007ac <alt_NetworkErrorHandler>
   * port and incoming address. In this case we're binding to SSS_PORT and to
   * INADDR_ANY address (allowing anyone to connect to us. Bind may fail for 
   * various reasons, but the most common is that some other socket is bound to
   * the port we're requesting. 
   */ 
  addr.sin_family = AF_INET;
 82029fc:	00800084 	movi	r2,2
 8202a00:	e0bfbb0d 	sth	r2,-276(fp)
  addr.sin_port = htons(SSS_PORT);
 8202a04:	00878004 	movi	r2,7680
 8202a08:	e0bfbb8d 	sth	r2,-274(fp)
  addr.sin_addr.s_addr = INADDR_ANY;
 8202a0c:	e03fbc15 	stw	zero,-272(fp)
  
  if ((bind(fd_listen,(struct sockaddr *)&addr,sizeof(addr))) < 0)
 8202a10:	e0bfbb04 	addi	r2,fp,-276
 8202a14:	01800404 	movi	r6,16
 8202a18:	100b883a 	mov	r5,r2
 8202a1c:	e13fba17 	ldw	r4,-280(fp)
 8202a20:	823050c0 	call	823050c <t_bind>
 8202a24:	1000040e 	bge	r2,zero,8202a38 <SSSSimpleSocketServerTask+0x78>
  {
    alt_NetworkErrorHandler(EXPANDED_DIAGNOSIS_CODE,"[sss_task] Bind failed");
 8202a28:	01420974 	movhi	r5,2085
 8202a2c:	29745604 	addi	r5,r5,-11944
 8202a30:	01003fc4 	movi	r4,255
 8202a34:	82007ac0 	call	82007ac <alt_NetworkErrorHandler>
   * Sockets primer, continued...
   * The listen socket is a socket which is waiting for incoming connections.
   * This call to listen will block (i.e. not return) until someone tries to 
   * connect to this port.
   */ 
  if ((listen(fd_listen,1)) < 0)
 8202a38:	01400044 	movi	r5,1
 8202a3c:	e13fba17 	ldw	r4,-280(fp)
 8202a40:	82306700 	call	8230670 <t_listen>
 8202a44:	1000040e 	bge	r2,zero,8202a58 <SSSSimpleSocketServerTask+0x98>
  {
    alt_NetworkErrorHandler(EXPANDED_DIAGNOSIS_CODE,"[sss_task] Listen failed");
 8202a48:	01420974 	movhi	r5,2085
 8202a4c:	29745c04 	addi	r5,r5,-11920
 8202a50:	01003fc4 	movi	r4,255
 8202a54:	82007ac0 	call	82007ac <alt_NetworkErrorHandler>
  }

  /* At this point we have successfully created a socket which is listening
   * on SSS_PORT for connection requests from any remote address.
   */
  sss_reset_connection(&conn);
 8202a58:	01020974 	movhi	r4,2085
 8202a5c:	21109604 	addi	r4,r4,16984
 8202a60:	8201a4c0 	call	8201a4c <sss_reset_connection>
  printf("[sss_task] Simple Socket Server listening on port %d\n", SSS_PORT);
 8202a64:	01400784 	movi	r5,30
 8202a68:	01020974 	movhi	r4,2085
 8202a6c:	21346304 	addi	r4,r4,-11892
 8202a70:	82033fc0 	call	82033fc <printf>
     * 
     *   FD_ZERO  - Zero's out the sockets we're interested in
     *   FD_SET   - Adds a socket to those we're interested in
     *   FD_ISSET - Tests whether the chosen socket is set 
     */
    FD_ZERO(&readfds);
 8202a74:	e03fbf15 	stw	zero,-260(fp)
    FD_SET(fd_listen, &readfds);
 8202a78:	e0bfbf04 	addi	r2,fp,-260
 8202a7c:	100b883a 	mov	r5,r2
 8202a80:	e13fba17 	ldw	r4,-280(fp)
 8202a84:	82354780 	call	8235478 <ifd_set>
    max_socket = fd_listen+1;
 8202a88:	e0bfba17 	ldw	r2,-280(fp)
 8202a8c:	10800044 	addi	r2,r2,1
 8202a90:	e0bfb915 	stw	r2,-284(fp)

    if (conn.fd != -1)
 8202a94:	00820974 	movhi	r2,2085
 8202a98:	10909604 	addi	r2,r2,16984
 8202a9c:	10800117 	ldw	r2,4(r2)
 8202aa0:	10bfffe0 	cmpeqi	r2,r2,-1
 8202aa4:	1000111e 	bne	r2,zero,8202aec <SSSSimpleSocketServerTask+0x12c>
    {
      FD_SET(conn.fd, &readfds);
 8202aa8:	00820974 	movhi	r2,2085
 8202aac:	10909604 	addi	r2,r2,16984
 8202ab0:	10800117 	ldw	r2,4(r2)
 8202ab4:	e0ffbf04 	addi	r3,fp,-260
 8202ab8:	180b883a 	mov	r5,r3
 8202abc:	1009883a 	mov	r4,r2
 8202ac0:	82354780 	call	8235478 <ifd_set>
      if (max_socket <= conn.fd)
 8202ac4:	00820974 	movhi	r2,2085
 8202ac8:	10909604 	addi	r2,r2,16984
 8202acc:	10c00117 	ldw	r3,4(r2)
 8202ad0:	e0bfb917 	ldw	r2,-284(fp)
 8202ad4:	18800516 	blt	r3,r2,8202aec <SSSSimpleSocketServerTask+0x12c>
      {
        max_socket = conn.fd+1;
 8202ad8:	00820974 	movhi	r2,2085
 8202adc:	10909604 	addi	r2,r2,16984
 8202ae0:	10800117 	ldw	r2,4(r2)
 8202ae4:	10800044 	addi	r2,r2,1
 8202ae8:	e0bfb915 	stw	r2,-284(fp)
      }
    }

    select(max_socket, &readfds, NULL, NULL, NULL);
 8202aec:	e0bfbf04 	addi	r2,fp,-260
 8202af0:	d8000015 	stw	zero,0(sp)
 8202af4:	000f883a 	mov	r7,zero
 8202af8:	000d883a 	mov	r6,zero
 8202afc:	100b883a 	mov	r5,r2
 8202b00:	e13fb917 	ldw	r4,-284(fp)
 8202b04:	82285080 	call	8228508 <bsd_select>
     * is "set" in readfs, then we have an incoming connection request. We'll
     * call a routine to explicitly accept or deny the incoming connection 
     * request (in this example, we accept a single connection and reject any
     * others that come in while the connection is open).
     */
    if (FD_ISSET(fd_listen, &readfds))
 8202b08:	e0bfbf04 	addi	r2,fp,-260
 8202b0c:	100b883a 	mov	r5,r2
 8202b10:	e13fba17 	ldw	r4,-280(fp)
 8202b14:	82354f00 	call	82354f0 <ifd_isset>
 8202b18:	10000526 	beq	r2,zero,8202b30 <SSSSimpleSocketServerTask+0x170>
    {
      sss_handle_accept(fd_listen, &conn);
 8202b1c:	01420974 	movhi	r5,2085
 8202b20:	29509604 	addi	r5,r5,16984
 8202b24:	e13fba17 	ldw	r4,-280(fp)
 8202b28:	8201d800 	call	8201d80 <sss_handle_accept>
 8202b2c:	003fd106 	br	8202a74 <SSSSimpleSocketServerTask+0xb4>
     * incoming data for our sss server, and we call our receiver routine
     * to process it.
     */
    else
    {
      if ((conn.fd != -1) && FD_ISSET(conn.fd, &readfds))
 8202b30:	00820974 	movhi	r2,2085
 8202b34:	10909604 	addi	r2,r2,16984
 8202b38:	10800117 	ldw	r2,4(r2)
 8202b3c:	10bfffe0 	cmpeqi	r2,r2,-1
 8202b40:	103fcc1e 	bne	r2,zero,8202a74 <SSSSimpleSocketServerTask+0xb4>
 8202b44:	00820974 	movhi	r2,2085
 8202b48:	10909604 	addi	r2,r2,16984
 8202b4c:	10800117 	ldw	r2,4(r2)
 8202b50:	e0ffbf04 	addi	r3,fp,-260
 8202b54:	180b883a 	mov	r5,r3
 8202b58:	1009883a 	mov	r4,r2
 8202b5c:	82354f00 	call	82354f0 <ifd_isset>
 8202b60:	103fc426 	beq	r2,zero,8202a74 <SSSSimpleSocketServerTask+0xb4>
      {
        sss_handle_receive(&conn);
 8202b64:	01020974 	movhi	r4,2085
 8202b68:	21109604 	addi	r4,r4,16984
 8202b6c:	82027d00 	call	82027d0 <sss_handle_receive>
      }
    }
  } /* while(1) */
 8202b70:	003fc006 	br	8202a74 <SSSSimpleSocketServerTask+0xb4>

08202b74 <__divsi3>:
 8202b74:	20001b16 	blt	r4,zero,8202be4 <__divsi3+0x70>
 8202b78:	000f883a 	mov	r7,zero
 8202b7c:	28001616 	blt	r5,zero,8202bd8 <__divsi3+0x64>
 8202b80:	200d883a 	mov	r6,r4
 8202b84:	29001a2e 	bgeu	r5,r4,8202bf0 <__divsi3+0x7c>
 8202b88:	00800804 	movi	r2,32
 8202b8c:	00c00044 	movi	r3,1
 8202b90:	00000106 	br	8202b98 <__divsi3+0x24>
 8202b94:	10000d26 	beq	r2,zero,8202bcc <__divsi3+0x58>
 8202b98:	294b883a 	add	r5,r5,r5
 8202b9c:	10bfffc4 	addi	r2,r2,-1
 8202ba0:	18c7883a 	add	r3,r3,r3
 8202ba4:	293ffb36 	bltu	r5,r4,8202b94 <__divsi3+0x20>
 8202ba8:	0005883a 	mov	r2,zero
 8202bac:	18000726 	beq	r3,zero,8202bcc <__divsi3+0x58>
 8202bb0:	0005883a 	mov	r2,zero
 8202bb4:	31400236 	bltu	r6,r5,8202bc0 <__divsi3+0x4c>
 8202bb8:	314dc83a 	sub	r6,r6,r5
 8202bbc:	10c4b03a 	or	r2,r2,r3
 8202bc0:	1806d07a 	srli	r3,r3,1
 8202bc4:	280ad07a 	srli	r5,r5,1
 8202bc8:	183ffa1e 	bne	r3,zero,8202bb4 <__divsi3+0x40>
 8202bcc:	38000126 	beq	r7,zero,8202bd4 <__divsi3+0x60>
 8202bd0:	0085c83a 	sub	r2,zero,r2
 8202bd4:	f800283a 	ret
 8202bd8:	014bc83a 	sub	r5,zero,r5
 8202bdc:	39c0005c 	xori	r7,r7,1
 8202be0:	003fe706 	br	8202b80 <__divsi3+0xc>
 8202be4:	0109c83a 	sub	r4,zero,r4
 8202be8:	01c00044 	movi	r7,1
 8202bec:	003fe306 	br	8202b7c <__divsi3+0x8>
 8202bf0:	00c00044 	movi	r3,1
 8202bf4:	003fee06 	br	8202bb0 <__divsi3+0x3c>

08202bf8 <__modsi3>:
 8202bf8:	20001716 	blt	r4,zero,8202c58 <__modsi3+0x60>
 8202bfc:	000f883a 	mov	r7,zero
 8202c00:	2005883a 	mov	r2,r4
 8202c04:	28001216 	blt	r5,zero,8202c50 <__modsi3+0x58>
 8202c08:	2900162e 	bgeu	r5,r4,8202c64 <__modsi3+0x6c>
 8202c0c:	01800804 	movi	r6,32
 8202c10:	00c00044 	movi	r3,1
 8202c14:	00000106 	br	8202c1c <__modsi3+0x24>
 8202c18:	30000a26 	beq	r6,zero,8202c44 <__modsi3+0x4c>
 8202c1c:	294b883a 	add	r5,r5,r5
 8202c20:	31bfffc4 	addi	r6,r6,-1
 8202c24:	18c7883a 	add	r3,r3,r3
 8202c28:	293ffb36 	bltu	r5,r4,8202c18 <__modsi3+0x20>
 8202c2c:	18000526 	beq	r3,zero,8202c44 <__modsi3+0x4c>
 8202c30:	1806d07a 	srli	r3,r3,1
 8202c34:	11400136 	bltu	r2,r5,8202c3c <__modsi3+0x44>
 8202c38:	1145c83a 	sub	r2,r2,r5
 8202c3c:	280ad07a 	srli	r5,r5,1
 8202c40:	183ffb1e 	bne	r3,zero,8202c30 <__modsi3+0x38>
 8202c44:	38000126 	beq	r7,zero,8202c4c <__modsi3+0x54>
 8202c48:	0085c83a 	sub	r2,zero,r2
 8202c4c:	f800283a 	ret
 8202c50:	014bc83a 	sub	r5,zero,r5
 8202c54:	003fec06 	br	8202c08 <__modsi3+0x10>
 8202c58:	0109c83a 	sub	r4,zero,r4
 8202c5c:	01c00044 	movi	r7,1
 8202c60:	003fe706 	br	8202c00 <__modsi3+0x8>
 8202c64:	00c00044 	movi	r3,1
 8202c68:	003ff106 	br	8202c30 <__modsi3+0x38>

08202c6c <__udivsi3>:
 8202c6c:	200d883a 	mov	r6,r4
 8202c70:	2900152e 	bgeu	r5,r4,8202cc8 <__udivsi3+0x5c>
 8202c74:	28001416 	blt	r5,zero,8202cc8 <__udivsi3+0x5c>
 8202c78:	00800804 	movi	r2,32
 8202c7c:	00c00044 	movi	r3,1
 8202c80:	00000206 	br	8202c8c <__udivsi3+0x20>
 8202c84:	10000e26 	beq	r2,zero,8202cc0 <__udivsi3+0x54>
 8202c88:	28000516 	blt	r5,zero,8202ca0 <__udivsi3+0x34>
 8202c8c:	294b883a 	add	r5,r5,r5
 8202c90:	10bfffc4 	addi	r2,r2,-1
 8202c94:	18c7883a 	add	r3,r3,r3
 8202c98:	293ffa36 	bltu	r5,r4,8202c84 <__udivsi3+0x18>
 8202c9c:	18000826 	beq	r3,zero,8202cc0 <__udivsi3+0x54>
 8202ca0:	0005883a 	mov	r2,zero
 8202ca4:	31400236 	bltu	r6,r5,8202cb0 <__udivsi3+0x44>
 8202ca8:	314dc83a 	sub	r6,r6,r5
 8202cac:	10c4b03a 	or	r2,r2,r3
 8202cb0:	1806d07a 	srli	r3,r3,1
 8202cb4:	280ad07a 	srli	r5,r5,1
 8202cb8:	183ffa1e 	bne	r3,zero,8202ca4 <__udivsi3+0x38>
 8202cbc:	f800283a 	ret
 8202cc0:	0005883a 	mov	r2,zero
 8202cc4:	f800283a 	ret
 8202cc8:	00c00044 	movi	r3,1
 8202ccc:	003ff406 	br	8202ca0 <__udivsi3+0x34>

08202cd0 <__umodsi3>:
 8202cd0:	2005883a 	mov	r2,r4
 8202cd4:	2900122e 	bgeu	r5,r4,8202d20 <__umodsi3+0x50>
 8202cd8:	28001116 	blt	r5,zero,8202d20 <__umodsi3+0x50>
 8202cdc:	01800804 	movi	r6,32
 8202ce0:	00c00044 	movi	r3,1
 8202ce4:	00000206 	br	8202cf0 <__umodsi3+0x20>
 8202ce8:	30000c26 	beq	r6,zero,8202d1c <__umodsi3+0x4c>
 8202cec:	28000516 	blt	r5,zero,8202d04 <__umodsi3+0x34>
 8202cf0:	294b883a 	add	r5,r5,r5
 8202cf4:	31bfffc4 	addi	r6,r6,-1
 8202cf8:	18c7883a 	add	r3,r3,r3
 8202cfc:	293ffa36 	bltu	r5,r4,8202ce8 <__umodsi3+0x18>
 8202d00:	18000626 	beq	r3,zero,8202d1c <__umodsi3+0x4c>
 8202d04:	1806d07a 	srli	r3,r3,1
 8202d08:	11400136 	bltu	r2,r5,8202d10 <__umodsi3+0x40>
 8202d0c:	1145c83a 	sub	r2,r2,r5
 8202d10:	280ad07a 	srli	r5,r5,1
 8202d14:	183ffb1e 	bne	r3,zero,8202d04 <__umodsi3+0x34>
 8202d18:	f800283a 	ret
 8202d1c:	f800283a 	ret
 8202d20:	00c00044 	movi	r3,1
 8202d24:	003ff706 	br	8202d04 <__umodsi3+0x34>

08202d28 <_fprintf_r>:
 8202d28:	defffe04 	addi	sp,sp,-8
 8202d2c:	2809883a 	mov	r4,r5
 8202d30:	300b883a 	mov	r5,r6
 8202d34:	dfc00015 	stw	ra,0(sp)
 8202d38:	d9c00115 	stw	r7,4(sp)
 8202d3c:	d9800104 	addi	r6,sp,4
 8202d40:	8208c900 	call	8208c90 <__vfprintf_internal>
 8202d44:	dfc00017 	ldw	ra,0(sp)
 8202d48:	dec00204 	addi	sp,sp,8
 8202d4c:	f800283a 	ret

08202d50 <fprintf>:
 8202d50:	defffd04 	addi	sp,sp,-12
 8202d54:	dfc00015 	stw	ra,0(sp)
 8202d58:	d9800115 	stw	r6,4(sp)
 8202d5c:	d9c00215 	stw	r7,8(sp)
 8202d60:	d9800104 	addi	r6,sp,4
 8202d64:	8208c900 	call	8208c90 <__vfprintf_internal>
 8202d68:	dfc00017 	ldw	ra,0(sp)
 8202d6c:	dec00304 	addi	sp,sp,12
 8202d70:	f800283a 	ret

08202d74 <_fwrite_r>:
 8202d74:	defff504 	addi	sp,sp,-44
 8202d78:	dc800815 	stw	r18,32(sp)
 8202d7c:	39a5383a 	mul	r18,r7,r6
 8202d80:	d8800304 	addi	r2,sp,12
 8202d84:	d8800015 	stw	r2,0(sp)
 8202d88:	00800044 	movi	r2,1
 8202d8c:	dcc00915 	stw	r19,36(sp)
 8202d90:	dc400715 	stw	r17,28(sp)
 8202d94:	dc000615 	stw	r16,24(sp)
 8202d98:	d9400315 	stw	r5,12(sp)
 8202d9c:	dfc00a15 	stw	ra,40(sp)
 8202da0:	dc800415 	stw	r18,16(sp)
 8202da4:	dc800215 	stw	r18,8(sp)
 8202da8:	d8800115 	stw	r2,4(sp)
 8202dac:	3027883a 	mov	r19,r6
 8202db0:	3821883a 	mov	r16,r7
 8202db4:	2023883a 	mov	r17,r4
 8202db8:	d9400b17 	ldw	r5,44(sp)
 8202dbc:	20000226 	beq	r4,zero,8202dc8 <_fwrite_r+0x54>
 8202dc0:	20800e17 	ldw	r2,56(r4)
 8202dc4:	10001a26 	beq	r2,zero,8202e30 <_fwrite_r+0xbc>
 8202dc8:	2880030b 	ldhu	r2,12(r5)
 8202dcc:	10c8000c 	andi	r3,r2,8192
 8202dd0:	1800061e 	bne	r3,zero,8202dec <_fwrite_r+0x78>
 8202dd4:	29001917 	ldw	r4,100(r5)
 8202dd8:	00f7ffc4 	movi	r3,-8193
 8202ddc:	10880014 	ori	r2,r2,8192
 8202de0:	20c6703a 	and	r3,r4,r3
 8202de4:	2880030d 	sth	r2,12(r5)
 8202de8:	28c01915 	stw	r3,100(r5)
 8202dec:	d80d883a 	mov	r6,sp
 8202df0:	8809883a 	mov	r4,r17
 8202df4:	820b46c0 	call	820b46c <__sfvwrite_r>
 8202df8:	10000b26 	beq	r2,zero,8202e28 <_fwrite_r+0xb4>
 8202dfc:	d9000217 	ldw	r4,8(sp)
 8202e00:	980b883a 	mov	r5,r19
 8202e04:	9109c83a 	sub	r4,r18,r4
 8202e08:	8202c6c0 	call	8202c6c <__udivsi3>
 8202e0c:	dfc00a17 	ldw	ra,40(sp)
 8202e10:	dcc00917 	ldw	r19,36(sp)
 8202e14:	dc800817 	ldw	r18,32(sp)
 8202e18:	dc400717 	ldw	r17,28(sp)
 8202e1c:	dc000617 	ldw	r16,24(sp)
 8202e20:	dec00b04 	addi	sp,sp,44
 8202e24:	f800283a 	ret
 8202e28:	8005883a 	mov	r2,r16
 8202e2c:	003ff706 	br	8202e0c <_fwrite_r+0x98>
 8202e30:	d9400515 	stw	r5,20(sp)
 8202e34:	820ae940 	call	820ae94 <__sinit>
 8202e38:	d9400517 	ldw	r5,20(sp)
 8202e3c:	003fe206 	br	8202dc8 <_fwrite_r+0x54>

08202e40 <fwrite>:
 8202e40:	defffe04 	addi	sp,sp,-8
 8202e44:	00820974 	movhi	r2,2085
 8202e48:	d9c00015 	stw	r7,0(sp)
 8202e4c:	108fbb04 	addi	r2,r2,16108
 8202e50:	300f883a 	mov	r7,r6
 8202e54:	280d883a 	mov	r6,r5
 8202e58:	200b883a 	mov	r5,r4
 8202e5c:	11000017 	ldw	r4,0(r2)
 8202e60:	dfc00115 	stw	ra,4(sp)
 8202e64:	8202d740 	call	8202d74 <_fwrite_r>
 8202e68:	dfc00117 	ldw	ra,4(sp)
 8202e6c:	dec00204 	addi	sp,sp,8
 8202e70:	f800283a 	ret

08202e74 <_getc_r>:
 8202e74:	defffd04 	addi	sp,sp,-12
 8202e78:	dc000115 	stw	r16,4(sp)
 8202e7c:	dfc00215 	stw	ra,8(sp)
 8202e80:	2021883a 	mov	r16,r4
 8202e84:	20000226 	beq	r4,zero,8202e90 <_getc_r+0x1c>
 8202e88:	20800e17 	ldw	r2,56(r4)
 8202e8c:	10000c26 	beq	r2,zero,8202ec0 <_getc_r+0x4c>
 8202e90:	28800117 	ldw	r2,4(r5)
 8202e94:	10bfffc4 	addi	r2,r2,-1
 8202e98:	28800115 	stw	r2,4(r5)
 8202e9c:	10000c16 	blt	r2,zero,8202ed0 <_getc_r+0x5c>
 8202ea0:	28800017 	ldw	r2,0(r5)
 8202ea4:	10c00044 	addi	r3,r2,1
 8202ea8:	28c00015 	stw	r3,0(r5)
 8202eac:	10800003 	ldbu	r2,0(r2)
 8202eb0:	dfc00217 	ldw	ra,8(sp)
 8202eb4:	dc000117 	ldw	r16,4(sp)
 8202eb8:	dec00304 	addi	sp,sp,12
 8202ebc:	f800283a 	ret
 8202ec0:	d9400015 	stw	r5,0(sp)
 8202ec4:	820ae940 	call	820ae94 <__sinit>
 8202ec8:	d9400017 	ldw	r5,0(sp)
 8202ecc:	003ff006 	br	8202e90 <_getc_r+0x1c>
 8202ed0:	8009883a 	mov	r4,r16
 8202ed4:	dfc00217 	ldw	ra,8(sp)
 8202ed8:	dc000117 	ldw	r16,4(sp)
 8202edc:	dec00304 	addi	sp,sp,12
 8202ee0:	82036941 	jmpi	8203694 <__srget_r>

08202ee4 <getc>:
 8202ee4:	00820974 	movhi	r2,2085
 8202ee8:	defffd04 	addi	sp,sp,-12
 8202eec:	108fbb04 	addi	r2,r2,16108
 8202ef0:	dc400115 	stw	r17,4(sp)
 8202ef4:	14400017 	ldw	r17,0(r2)
 8202ef8:	dc000015 	stw	r16,0(sp)
 8202efc:	dfc00215 	stw	ra,8(sp)
 8202f00:	2021883a 	mov	r16,r4
 8202f04:	88000226 	beq	r17,zero,8202f10 <getc+0x2c>
 8202f08:	88800e17 	ldw	r2,56(r17)
 8202f0c:	10000d26 	beq	r2,zero,8202f44 <getc+0x60>
 8202f10:	80800117 	ldw	r2,4(r16)
 8202f14:	10bfffc4 	addi	r2,r2,-1
 8202f18:	80800115 	stw	r2,4(r16)
 8202f1c:	10000c16 	blt	r2,zero,8202f50 <getc+0x6c>
 8202f20:	80800017 	ldw	r2,0(r16)
 8202f24:	10c00044 	addi	r3,r2,1
 8202f28:	80c00015 	stw	r3,0(r16)
 8202f2c:	10800003 	ldbu	r2,0(r2)
 8202f30:	dfc00217 	ldw	ra,8(sp)
 8202f34:	dc400117 	ldw	r17,4(sp)
 8202f38:	dc000017 	ldw	r16,0(sp)
 8202f3c:	dec00304 	addi	sp,sp,12
 8202f40:	f800283a 	ret
 8202f44:	8809883a 	mov	r4,r17
 8202f48:	820ae940 	call	820ae94 <__sinit>
 8202f4c:	003ff006 	br	8202f10 <getc+0x2c>
 8202f50:	800b883a 	mov	r5,r16
 8202f54:	8809883a 	mov	r4,r17
 8202f58:	dfc00217 	ldw	ra,8(sp)
 8202f5c:	dc400117 	ldw	r17,4(sp)
 8202f60:	dc000017 	ldw	r16,0(sp)
 8202f64:	dec00304 	addi	sp,sp,12
 8202f68:	82036941 	jmpi	8203694 <__srget_r>

08202f6c <memcpy>:
 8202f6c:	defffd04 	addi	sp,sp,-12
 8202f70:	dfc00215 	stw	ra,8(sp)
 8202f74:	dc400115 	stw	r17,4(sp)
 8202f78:	dc000015 	stw	r16,0(sp)
 8202f7c:	00c003c4 	movi	r3,15
 8202f80:	2005883a 	mov	r2,r4
 8202f84:	1980452e 	bgeu	r3,r6,820309c <memcpy+0x130>
 8202f88:	2906b03a 	or	r3,r5,r4
 8202f8c:	18c000cc 	andi	r3,r3,3
 8202f90:	1800441e 	bne	r3,zero,82030a4 <memcpy+0x138>
 8202f94:	347ffc04 	addi	r17,r6,-16
 8202f98:	8822d13a 	srli	r17,r17,4
 8202f9c:	28c00104 	addi	r3,r5,4
 8202fa0:	23400104 	addi	r13,r4,4
 8202fa4:	8820913a 	slli	r16,r17,4
 8202fa8:	2b000204 	addi	r12,r5,8
 8202fac:	22c00204 	addi	r11,r4,8
 8202fb0:	84000504 	addi	r16,r16,20
 8202fb4:	2a800304 	addi	r10,r5,12
 8202fb8:	22400304 	addi	r9,r4,12
 8202fbc:	2c21883a 	add	r16,r5,r16
 8202fc0:	2811883a 	mov	r8,r5
 8202fc4:	200f883a 	mov	r7,r4
 8202fc8:	41000017 	ldw	r4,0(r8)
 8202fcc:	1fc00017 	ldw	ra,0(r3)
 8202fd0:	63c00017 	ldw	r15,0(r12)
 8202fd4:	39000015 	stw	r4,0(r7)
 8202fd8:	53800017 	ldw	r14,0(r10)
 8202fdc:	6fc00015 	stw	ra,0(r13)
 8202fe0:	5bc00015 	stw	r15,0(r11)
 8202fe4:	4b800015 	stw	r14,0(r9)
 8202fe8:	18c00404 	addi	r3,r3,16
 8202fec:	39c00404 	addi	r7,r7,16
 8202ff0:	42000404 	addi	r8,r8,16
 8202ff4:	6b400404 	addi	r13,r13,16
 8202ff8:	63000404 	addi	r12,r12,16
 8202ffc:	5ac00404 	addi	r11,r11,16
 8203000:	52800404 	addi	r10,r10,16
 8203004:	4a400404 	addi	r9,r9,16
 8203008:	1c3fef1e 	bne	r3,r16,8202fc8 <memcpy+0x5c>
 820300c:	89c00044 	addi	r7,r17,1
 8203010:	380e913a 	slli	r7,r7,4
 8203014:	310003cc 	andi	r4,r6,15
 8203018:	02c000c4 	movi	r11,3
 820301c:	11c7883a 	add	r3,r2,r7
 8203020:	29cb883a 	add	r5,r5,r7
 8203024:	5900212e 	bgeu	r11,r4,82030ac <memcpy+0x140>
 8203028:	1813883a 	mov	r9,r3
 820302c:	2811883a 	mov	r8,r5
 8203030:	200f883a 	mov	r7,r4
 8203034:	42800017 	ldw	r10,0(r8)
 8203038:	4a400104 	addi	r9,r9,4
 820303c:	39ffff04 	addi	r7,r7,-4
 8203040:	4abfff15 	stw	r10,-4(r9)
 8203044:	42000104 	addi	r8,r8,4
 8203048:	59fffa36 	bltu	r11,r7,8203034 <memcpy+0xc8>
 820304c:	213fff04 	addi	r4,r4,-4
 8203050:	2008d0ba 	srli	r4,r4,2
 8203054:	318000cc 	andi	r6,r6,3
 8203058:	21000044 	addi	r4,r4,1
 820305c:	2109883a 	add	r4,r4,r4
 8203060:	2109883a 	add	r4,r4,r4
 8203064:	1907883a 	add	r3,r3,r4
 8203068:	290b883a 	add	r5,r5,r4
 820306c:	30000626 	beq	r6,zero,8203088 <memcpy+0x11c>
 8203070:	198d883a 	add	r6,r3,r6
 8203074:	29c00003 	ldbu	r7,0(r5)
 8203078:	18c00044 	addi	r3,r3,1
 820307c:	29400044 	addi	r5,r5,1
 8203080:	19ffffc5 	stb	r7,-1(r3)
 8203084:	19bffb1e 	bne	r3,r6,8203074 <memcpy+0x108>
 8203088:	dfc00217 	ldw	ra,8(sp)
 820308c:	dc400117 	ldw	r17,4(sp)
 8203090:	dc000017 	ldw	r16,0(sp)
 8203094:	dec00304 	addi	sp,sp,12
 8203098:	f800283a 	ret
 820309c:	2007883a 	mov	r3,r4
 82030a0:	003ff206 	br	820306c <memcpy+0x100>
 82030a4:	2007883a 	mov	r3,r4
 82030a8:	003ff106 	br	8203070 <memcpy+0x104>
 82030ac:	200d883a 	mov	r6,r4
 82030b0:	003fee06 	br	820306c <memcpy+0x100>

082030b4 <memmove>:
 82030b4:	2005883a 	mov	r2,r4
 82030b8:	29000b2e 	bgeu	r5,r4,82030e8 <memmove+0x34>
 82030bc:	298f883a 	add	r7,r5,r6
 82030c0:	21c0092e 	bgeu	r4,r7,82030e8 <memmove+0x34>
 82030c4:	2187883a 	add	r3,r4,r6
 82030c8:	198bc83a 	sub	r5,r3,r6
 82030cc:	30004826 	beq	r6,zero,82031f0 <memmove+0x13c>
 82030d0:	39ffffc4 	addi	r7,r7,-1
 82030d4:	39000003 	ldbu	r4,0(r7)
 82030d8:	18ffffc4 	addi	r3,r3,-1
 82030dc:	19000005 	stb	r4,0(r3)
 82030e0:	28fffb1e 	bne	r5,r3,82030d0 <memmove+0x1c>
 82030e4:	f800283a 	ret
 82030e8:	00c003c4 	movi	r3,15
 82030ec:	1980412e 	bgeu	r3,r6,82031f4 <memmove+0x140>
 82030f0:	2886b03a 	or	r3,r5,r2
 82030f4:	18c000cc 	andi	r3,r3,3
 82030f8:	1800401e 	bne	r3,zero,82031fc <memmove+0x148>
 82030fc:	33fffc04 	addi	r15,r6,-16
 8203100:	781ed13a 	srli	r15,r15,4
 8203104:	28c00104 	addi	r3,r5,4
 8203108:	13400104 	addi	r13,r2,4
 820310c:	781c913a 	slli	r14,r15,4
 8203110:	2b000204 	addi	r12,r5,8
 8203114:	12c00204 	addi	r11,r2,8
 8203118:	73800504 	addi	r14,r14,20
 820311c:	2a800304 	addi	r10,r5,12
 8203120:	12400304 	addi	r9,r2,12
 8203124:	2b9d883a 	add	r14,r5,r14
 8203128:	2811883a 	mov	r8,r5
 820312c:	100f883a 	mov	r7,r2
 8203130:	41000017 	ldw	r4,0(r8)
 8203134:	39c00404 	addi	r7,r7,16
 8203138:	18c00404 	addi	r3,r3,16
 820313c:	393ffc15 	stw	r4,-16(r7)
 8203140:	193ffc17 	ldw	r4,-16(r3)
 8203144:	6b400404 	addi	r13,r13,16
 8203148:	5ac00404 	addi	r11,r11,16
 820314c:	693ffc15 	stw	r4,-16(r13)
 8203150:	61000017 	ldw	r4,0(r12)
 8203154:	4a400404 	addi	r9,r9,16
 8203158:	42000404 	addi	r8,r8,16
 820315c:	593ffc15 	stw	r4,-16(r11)
 8203160:	51000017 	ldw	r4,0(r10)
 8203164:	63000404 	addi	r12,r12,16
 8203168:	52800404 	addi	r10,r10,16
 820316c:	493ffc15 	stw	r4,-16(r9)
 8203170:	1bbfef1e 	bne	r3,r14,8203130 <memmove+0x7c>
 8203174:	79000044 	addi	r4,r15,1
 8203178:	2008913a 	slli	r4,r4,4
 820317c:	328003cc 	andi	r10,r6,15
 8203180:	02c000c4 	movi	r11,3
 8203184:	1107883a 	add	r3,r2,r4
 8203188:	290b883a 	add	r5,r5,r4
 820318c:	5a801e2e 	bgeu	r11,r10,8203208 <memmove+0x154>
 8203190:	1813883a 	mov	r9,r3
 8203194:	2811883a 	mov	r8,r5
 8203198:	500f883a 	mov	r7,r10
 820319c:	41000017 	ldw	r4,0(r8)
 82031a0:	4a400104 	addi	r9,r9,4
 82031a4:	39ffff04 	addi	r7,r7,-4
 82031a8:	493fff15 	stw	r4,-4(r9)
 82031ac:	42000104 	addi	r8,r8,4
 82031b0:	59fffa36 	bltu	r11,r7,820319c <memmove+0xe8>
 82031b4:	513fff04 	addi	r4,r10,-4
 82031b8:	2008d0ba 	srli	r4,r4,2
 82031bc:	318000cc 	andi	r6,r6,3
 82031c0:	21000044 	addi	r4,r4,1
 82031c4:	2109883a 	add	r4,r4,r4
 82031c8:	2109883a 	add	r4,r4,r4
 82031cc:	1907883a 	add	r3,r3,r4
 82031d0:	290b883a 	add	r5,r5,r4
 82031d4:	30000b26 	beq	r6,zero,8203204 <memmove+0x150>
 82031d8:	198d883a 	add	r6,r3,r6
 82031dc:	29c00003 	ldbu	r7,0(r5)
 82031e0:	18c00044 	addi	r3,r3,1
 82031e4:	29400044 	addi	r5,r5,1
 82031e8:	19ffffc5 	stb	r7,-1(r3)
 82031ec:	19bffb1e 	bne	r3,r6,82031dc <memmove+0x128>
 82031f0:	f800283a 	ret
 82031f4:	1007883a 	mov	r3,r2
 82031f8:	003ff606 	br	82031d4 <memmove+0x120>
 82031fc:	1007883a 	mov	r3,r2
 8203200:	003ff506 	br	82031d8 <memmove+0x124>
 8203204:	f800283a 	ret
 8203208:	500d883a 	mov	r6,r10
 820320c:	003ff106 	br	82031d4 <memmove+0x120>

08203210 <memset>:
 8203210:	20c000cc 	andi	r3,r4,3
 8203214:	2005883a 	mov	r2,r4
 8203218:	18004426 	beq	r3,zero,820332c <memset+0x11c>
 820321c:	31ffffc4 	addi	r7,r6,-1
 8203220:	30004026 	beq	r6,zero,8203324 <memset+0x114>
 8203224:	2813883a 	mov	r9,r5
 8203228:	200d883a 	mov	r6,r4
 820322c:	2007883a 	mov	r3,r4
 8203230:	00000406 	br	8203244 <memset+0x34>
 8203234:	3a3fffc4 	addi	r8,r7,-1
 8203238:	31800044 	addi	r6,r6,1
 820323c:	38003926 	beq	r7,zero,8203324 <memset+0x114>
 8203240:	400f883a 	mov	r7,r8
 8203244:	18c00044 	addi	r3,r3,1
 8203248:	32400005 	stb	r9,0(r6)
 820324c:	1a0000cc 	andi	r8,r3,3
 8203250:	403ff81e 	bne	r8,zero,8203234 <memset+0x24>
 8203254:	010000c4 	movi	r4,3
 8203258:	21c02d2e 	bgeu	r4,r7,8203310 <memset+0x100>
 820325c:	29003fcc 	andi	r4,r5,255
 8203260:	200c923a 	slli	r6,r4,8
 8203264:	3108b03a 	or	r4,r6,r4
 8203268:	200c943a 	slli	r6,r4,16
 820326c:	218cb03a 	or	r6,r4,r6
 8203270:	010003c4 	movi	r4,15
 8203274:	21c0182e 	bgeu	r4,r7,82032d8 <memset+0xc8>
 8203278:	3b3ffc04 	addi	r12,r7,-16
 820327c:	6018d13a 	srli	r12,r12,4
 8203280:	1a000104 	addi	r8,r3,4
 8203284:	1ac00204 	addi	r11,r3,8
 8203288:	6008913a 	slli	r4,r12,4
 820328c:	1a800304 	addi	r10,r3,12
 8203290:	1813883a 	mov	r9,r3
 8203294:	21000504 	addi	r4,r4,20
 8203298:	1909883a 	add	r4,r3,r4
 820329c:	49800015 	stw	r6,0(r9)
 82032a0:	41800015 	stw	r6,0(r8)
 82032a4:	59800015 	stw	r6,0(r11)
 82032a8:	51800015 	stw	r6,0(r10)
 82032ac:	42000404 	addi	r8,r8,16
 82032b0:	4a400404 	addi	r9,r9,16
 82032b4:	5ac00404 	addi	r11,r11,16
 82032b8:	52800404 	addi	r10,r10,16
 82032bc:	413ff71e 	bne	r8,r4,820329c <memset+0x8c>
 82032c0:	63000044 	addi	r12,r12,1
 82032c4:	6018913a 	slli	r12,r12,4
 82032c8:	39c003cc 	andi	r7,r7,15
 82032cc:	010000c4 	movi	r4,3
 82032d0:	1b07883a 	add	r3,r3,r12
 82032d4:	21c00e2e 	bgeu	r4,r7,8203310 <memset+0x100>
 82032d8:	1813883a 	mov	r9,r3
 82032dc:	3811883a 	mov	r8,r7
 82032e0:	010000c4 	movi	r4,3
 82032e4:	49800015 	stw	r6,0(r9)
 82032e8:	423fff04 	addi	r8,r8,-4
 82032ec:	4a400104 	addi	r9,r9,4
 82032f0:	223ffc36 	bltu	r4,r8,82032e4 <memset+0xd4>
 82032f4:	393fff04 	addi	r4,r7,-4
 82032f8:	2008d0ba 	srli	r4,r4,2
 82032fc:	39c000cc 	andi	r7,r7,3
 8203300:	21000044 	addi	r4,r4,1
 8203304:	2109883a 	add	r4,r4,r4
 8203308:	2109883a 	add	r4,r4,r4
 820330c:	1907883a 	add	r3,r3,r4
 8203310:	38000526 	beq	r7,zero,8203328 <memset+0x118>
 8203314:	19cf883a 	add	r7,r3,r7
 8203318:	19400005 	stb	r5,0(r3)
 820331c:	18c00044 	addi	r3,r3,1
 8203320:	38fffd1e 	bne	r7,r3,8203318 <memset+0x108>
 8203324:	f800283a 	ret
 8203328:	f800283a 	ret
 820332c:	2007883a 	mov	r3,r4
 8203330:	300f883a 	mov	r7,r6
 8203334:	003fc706 	br	8203254 <memset+0x44>

08203338 <_perror_r>:
 8203338:	defffd04 	addi	sp,sp,-12
 820333c:	dc000115 	stw	r16,4(sp)
 8203340:	dfc00215 	stw	ra,8(sp)
 8203344:	2021883a 	mov	r16,r4
 8203348:	28000326 	beq	r5,zero,8203358 <_perror_r+0x20>
 820334c:	28c00007 	ldb	r3,0(r5)
 8203350:	2805883a 	mov	r2,r5
 8203354:	1800101e 	bne	r3,zero,8203398 <_perror_r+0x60>
 8203358:	81400017 	ldw	r5,0(r16)
 820335c:	d80f883a 	mov	r7,sp
 8203360:	01800044 	movi	r6,1
 8203364:	8009883a 	mov	r4,r16
 8203368:	82039440 	call	8203944 <_strerror_r>
 820336c:	10000326 	beq	r2,zero,820337c <_perror_r+0x44>
 8203370:	81400317 	ldw	r5,12(r16)
 8203374:	1009883a 	mov	r4,r2
 8203378:	820b0200 	call	820b020 <fputs>
 820337c:	81400317 	ldw	r5,12(r16)
 8203380:	01000284 	movi	r4,10
 8203384:	820af280 	call	820af28 <fputc>
 8203388:	dfc00217 	ldw	ra,8(sp)
 820338c:	dc000117 	ldw	r16,4(sp)
 8203390:	dec00304 	addi	sp,sp,12
 8203394:	f800283a 	ret
 8203398:	21400317 	ldw	r5,12(r4)
 820339c:	1009883a 	mov	r4,r2
 82033a0:	820b0200 	call	820b020 <fputs>
 82033a4:	81400317 	ldw	r5,12(r16)
 82033a8:	01020974 	movhi	r4,2085
 82033ac:	21351a04 	addi	r4,r4,-11160
 82033b0:	820b0200 	call	820b020 <fputs>
 82033b4:	003fe806 	br	8203358 <_perror_r+0x20>

082033b8 <perror>:
 82033b8:	00820974 	movhi	r2,2085
 82033bc:	108fbb04 	addi	r2,r2,16108
 82033c0:	200b883a 	mov	r5,r4
 82033c4:	11000017 	ldw	r4,0(r2)
 82033c8:	82033381 	jmpi	8203338 <_perror_r>

082033cc <_printf_r>:
 82033cc:	defffd04 	addi	sp,sp,-12
 82033d0:	2805883a 	mov	r2,r5
 82033d4:	dfc00015 	stw	ra,0(sp)
 82033d8:	d9800115 	stw	r6,4(sp)
 82033dc:	d9c00215 	stw	r7,8(sp)
 82033e0:	21400217 	ldw	r5,8(r4)
 82033e4:	d9c00104 	addi	r7,sp,4
 82033e8:	100d883a 	mov	r6,r2
 82033ec:	8206a980 	call	8206a98 <___vfprintf_internal_r>
 82033f0:	dfc00017 	ldw	ra,0(sp)
 82033f4:	dec00304 	addi	sp,sp,12
 82033f8:	f800283a 	ret

082033fc <printf>:
 82033fc:	defffc04 	addi	sp,sp,-16
 8203400:	dfc00015 	stw	ra,0(sp)
 8203404:	d9400115 	stw	r5,4(sp)
 8203408:	d9800215 	stw	r6,8(sp)
 820340c:	d9c00315 	stw	r7,12(sp)
 8203410:	00820974 	movhi	r2,2085
 8203414:	108fbb04 	addi	r2,r2,16108
 8203418:	10800017 	ldw	r2,0(r2)
 820341c:	200b883a 	mov	r5,r4
 8203420:	d9800104 	addi	r6,sp,4
 8203424:	11000217 	ldw	r4,8(r2)
 8203428:	8208c900 	call	8208c90 <__vfprintf_internal>
 820342c:	dfc00017 	ldw	ra,0(sp)
 8203430:	dec00404 	addi	sp,sp,16
 8203434:	f800283a 	ret

08203438 <_putc_r>:
 8203438:	defffc04 	addi	sp,sp,-16
 820343c:	dc000215 	stw	r16,8(sp)
 8203440:	dfc00315 	stw	ra,12(sp)
 8203444:	2021883a 	mov	r16,r4
 8203448:	20000226 	beq	r4,zero,8203454 <_putc_r+0x1c>
 820344c:	20800e17 	ldw	r2,56(r4)
 8203450:	10001b26 	beq	r2,zero,82034c0 <_putc_r+0x88>
 8203454:	30800217 	ldw	r2,8(r6)
 8203458:	10bfffc4 	addi	r2,r2,-1
 820345c:	30800215 	stw	r2,8(r6)
 8203460:	10000a16 	blt	r2,zero,820348c <_putc_r+0x54>
 8203464:	30800017 	ldw	r2,0(r6)
 8203468:	11400005 	stb	r5,0(r2)
 820346c:	30800017 	ldw	r2,0(r6)
 8203470:	10c00044 	addi	r3,r2,1
 8203474:	30c00015 	stw	r3,0(r6)
 8203478:	10800003 	ldbu	r2,0(r2)
 820347c:	dfc00317 	ldw	ra,12(sp)
 8203480:	dc000217 	ldw	r16,8(sp)
 8203484:	dec00404 	addi	sp,sp,16
 8203488:	f800283a 	ret
 820348c:	30c00617 	ldw	r3,24(r6)
 8203490:	10c00616 	blt	r2,r3,82034ac <_putc_r+0x74>
 8203494:	30800017 	ldw	r2,0(r6)
 8203498:	00c00284 	movi	r3,10
 820349c:	11400005 	stb	r5,0(r2)
 82034a0:	30800017 	ldw	r2,0(r6)
 82034a4:	11400003 	ldbu	r5,0(r2)
 82034a8:	28fff11e 	bne	r5,r3,8203470 <_putc_r+0x38>
 82034ac:	8009883a 	mov	r4,r16
 82034b0:	dfc00317 	ldw	ra,12(sp)
 82034b4:	dc000217 	ldw	r16,8(sp)
 82034b8:	dec00404 	addi	sp,sp,16
 82034bc:	8208d681 	jmpi	8208d68 <__swbuf_r>
 82034c0:	d9400015 	stw	r5,0(sp)
 82034c4:	d9800115 	stw	r6,4(sp)
 82034c8:	820ae940 	call	820ae94 <__sinit>
 82034cc:	d9800117 	ldw	r6,4(sp)
 82034d0:	d9400017 	ldw	r5,0(sp)
 82034d4:	003fdf06 	br	8203454 <_putc_r+0x1c>

082034d8 <putc>:
 82034d8:	00820974 	movhi	r2,2085
 82034dc:	defffc04 	addi	sp,sp,-16
 82034e0:	108fbb04 	addi	r2,r2,16108
 82034e4:	dc000115 	stw	r16,4(sp)
 82034e8:	14000017 	ldw	r16,0(r2)
 82034ec:	dc400215 	stw	r17,8(sp)
 82034f0:	dfc00315 	stw	ra,12(sp)
 82034f4:	2023883a 	mov	r17,r4
 82034f8:	80000226 	beq	r16,zero,8203504 <putc+0x2c>
 82034fc:	80800e17 	ldw	r2,56(r16)
 8203500:	10001a26 	beq	r2,zero,820356c <putc+0x94>
 8203504:	28800217 	ldw	r2,8(r5)
 8203508:	10bfffc4 	addi	r2,r2,-1
 820350c:	28800215 	stw	r2,8(r5)
 8203510:	10000b16 	blt	r2,zero,8203540 <putc+0x68>
 8203514:	28800017 	ldw	r2,0(r5)
 8203518:	14400005 	stb	r17,0(r2)
 820351c:	28800017 	ldw	r2,0(r5)
 8203520:	10c00044 	addi	r3,r2,1
 8203524:	28c00015 	stw	r3,0(r5)
 8203528:	10800003 	ldbu	r2,0(r2)
 820352c:	dfc00317 	ldw	ra,12(sp)
 8203530:	dc400217 	ldw	r17,8(sp)
 8203534:	dc000117 	ldw	r16,4(sp)
 8203538:	dec00404 	addi	sp,sp,16
 820353c:	f800283a 	ret
 8203540:	28c00617 	ldw	r3,24(r5)
 8203544:	10c00e16 	blt	r2,r3,8203580 <putc+0xa8>
 8203548:	28800017 	ldw	r2,0(r5)
 820354c:	01000284 	movi	r4,10
 8203550:	14400005 	stb	r17,0(r2)
 8203554:	28800017 	ldw	r2,0(r5)
 8203558:	10c00003 	ldbu	r3,0(r2)
 820355c:	193ff01e 	bne	r3,r4,8203520 <putc+0x48>
 8203560:	280d883a 	mov	r6,r5
 8203564:	180b883a 	mov	r5,r3
 8203568:	00000706 	br	8203588 <putc+0xb0>
 820356c:	8009883a 	mov	r4,r16
 8203570:	d9400015 	stw	r5,0(sp)
 8203574:	820ae940 	call	820ae94 <__sinit>
 8203578:	d9400017 	ldw	r5,0(sp)
 820357c:	003fe106 	br	8203504 <putc+0x2c>
 8203580:	280d883a 	mov	r6,r5
 8203584:	880b883a 	mov	r5,r17
 8203588:	8009883a 	mov	r4,r16
 820358c:	dfc00317 	ldw	ra,12(sp)
 8203590:	dc400217 	ldw	r17,8(sp)
 8203594:	dc000117 	ldw	r16,4(sp)
 8203598:	dec00404 	addi	sp,sp,16
 820359c:	8208d681 	jmpi	8208d68 <__swbuf_r>

082035a0 <_putchar_r>:
 82035a0:	21800217 	ldw	r6,8(r4)
 82035a4:	82034381 	jmpi	8203438 <_putc_r>

082035a8 <putchar>:
 82035a8:	00820974 	movhi	r2,2085
 82035ac:	108fbb04 	addi	r2,r2,16108
 82035b0:	200b883a 	mov	r5,r4
 82035b4:	11000017 	ldw	r4,0(r2)
 82035b8:	21800217 	ldw	r6,8(r4)
